
smartHome.elf:     file format elf32-avr

Sections:
Idx Name          Size      VMA       LMA       File off  Algn
  0 .text         00001c1e  00000000  00000000  00000094  2**1
                  CONTENTS, ALLOC, LOAD, READONLY, CODE
  1 .data         00000226  00800060  00001c1e  00001cb2  2**0
                  CONTENTS, ALLOC, LOAD, DATA
  2 .bss          00000006  00800286  00800286  00001ed8  2**0
                  ALLOC
  3 .comment      00000030  00000000  00000000  00001ed8  2**0
                  CONTENTS, READONLY
  4 .note.gnu.avr.deviceinfo 0000003c  00000000  00000000  00001f08  2**2
                  CONTENTS, READONLY
  5 .debug_aranges 00000378  00000000  00000000  00001f44  2**0
                  CONTENTS, READONLY, DEBUGGING
  6 .debug_info   00003467  00000000  00000000  000022bc  2**0
                  CONTENTS, READONLY, DEBUGGING
  7 .debug_abbrev 00001062  00000000  00000000  00005723  2**0
                  CONTENTS, READONLY, DEBUGGING
  8 .debug_line   00001dad  00000000  00000000  00006785  2**0
                  CONTENTS, READONLY, DEBUGGING
  9 .debug_frame  00000860  00000000  00000000  00008534  2**2
                  CONTENTS, READONLY, DEBUGGING
 10 .debug_str    00000ede  00000000  00000000  00008d94  2**0
                  CONTENTS, READONLY, DEBUGGING
 11 .debug_loc    00001d1b  00000000  00000000  00009c72  2**0
                  CONTENTS, READONLY, DEBUGGING
 12 .debug_ranges 000002f8  00000000  00000000  0000b98d  2**0
                  CONTENTS, READONLY, DEBUGGING

Disassembly of section .text:

00000000 <__vectors>:
       0:	0c 94 32 00 	jmp	0x64	; 0x64 <__ctors_end>
       4:	0c 94 ae 0a 	jmp	0x155c	; 0x155c <__vector_1>
       8:	0c 94 4f 00 	jmp	0x9e	; 0x9e <__bad_interrupt>
       c:	0c 94 4f 00 	jmp	0x9e	; 0x9e <__bad_interrupt>
      10:	0c 94 4f 00 	jmp	0x9e	; 0x9e <__bad_interrupt>
      14:	0c 94 4f 00 	jmp	0x9e	; 0x9e <__bad_interrupt>
      18:	0c 94 4f 00 	jmp	0x9e	; 0x9e <__bad_interrupt>
      1c:	0c 94 4f 00 	jmp	0x9e	; 0x9e <__bad_interrupt>
      20:	0c 94 4f 00 	jmp	0x9e	; 0x9e <__bad_interrupt>
      24:	0c 94 4f 00 	jmp	0x9e	; 0x9e <__bad_interrupt>
      28:	0c 94 35 0b 	jmp	0x166a	; 0x166a <__vector_10>
      2c:	0c 94 fd 0a 	jmp	0x15fa	; 0x15fa <__vector_11>
      30:	0c 94 4f 00 	jmp	0x9e	; 0x9e <__bad_interrupt>
      34:	0c 94 4f 00 	jmp	0x9e	; 0x9e <__bad_interrupt>
      38:	0c 94 4f 00 	jmp	0x9e	; 0x9e <__bad_interrupt>
      3c:	0c 94 4f 00 	jmp	0x9e	; 0x9e <__bad_interrupt>
      40:	0c 94 4f 00 	jmp	0x9e	; 0x9e <__bad_interrupt>
      44:	0c 94 4f 00 	jmp	0x9e	; 0x9e <__bad_interrupt>
      48:	0c 94 4f 00 	jmp	0x9e	; 0x9e <__bad_interrupt>
      4c:	0c 94 4f 00 	jmp	0x9e	; 0x9e <__bad_interrupt>
      50:	0c 94 4f 00 	jmp	0x9e	; 0x9e <__bad_interrupt>
      54:	8b 00       	.word	0x008b	; ????
      56:	a0 00       	.word	0x00a0	; ????
      58:	b5 00       	.word	0x00b5	; ????
      5a:	ca 00       	.word	0x00ca	; ????
      5c:	df 00       	.word	0x00df	; ????
      5e:	f4 00       	.word	0x00f4	; ????
      60:	09 01       	movw	r0, r18
      62:	1e 01       	movw	r2, r28

00000064 <__ctors_end>:
      64:	11 24       	eor	r1, r1
      66:	1f be       	out	0x3f, r1	; 63
      68:	cf e5       	ldi	r28, 0x5F	; 95
      6a:	d8 e0       	ldi	r29, 0x08	; 8
      6c:	de bf       	out	0x3e, r29	; 62
      6e:	cd bf       	out	0x3d, r28	; 61

00000070 <__do_copy_data>:
      70:	12 e0       	ldi	r17, 0x02	; 2
      72:	a0 e6       	ldi	r26, 0x60	; 96
      74:	b0 e0       	ldi	r27, 0x00	; 0
      76:	ee e1       	ldi	r30, 0x1E	; 30
      78:	fc e1       	ldi	r31, 0x1C	; 28
      7a:	02 c0       	rjmp	.+4      	; 0x80 <__do_copy_data+0x10>
      7c:	05 90       	lpm	r0, Z+
      7e:	0d 92       	st	X+, r0
      80:	a6 38       	cpi	r26, 0x86	; 134
      82:	b1 07       	cpc	r27, r17
      84:	d9 f7       	brne	.-10     	; 0x7c <__do_copy_data+0xc>

00000086 <__do_clear_bss>:
      86:	22 e0       	ldi	r18, 0x02	; 2
      88:	a6 e8       	ldi	r26, 0x86	; 134
      8a:	b2 e0       	ldi	r27, 0x02	; 2
      8c:	01 c0       	rjmp	.+2      	; 0x90 <.do_clear_bss_start>

0000008e <.do_clear_bss_loop>:
      8e:	1d 92       	st	X+, r1

00000090 <.do_clear_bss_start>:
      90:	ac 38       	cpi	r26, 0x8C	; 140
      92:	b2 07       	cpc	r27, r18
      94:	e1 f7       	brne	.-8      	; 0x8e <.do_clear_bss_loop>
      96:	0e 94 90 05 	call	0xb20	; 0xb20 <main>
      9a:	0c 94 0d 0e 	jmp	0x1c1a	; 0x1c1a <_exit>

0000009e <__bad_interrupt>:
      9e:	0c 94 00 00 	jmp	0	; 0x0 <__vectors>

000000a2 <ADC_voidInit>:
#include "ADC_registers.h"
#include "DIO_interface.h"


void ADC_voidInit(u8 copy_u8VrefType){
	switch(copy_u8VrefType){
      a2:	81 30       	cpi	r24, 0x01	; 1
      a4:	59 f0       	breq	.+22     	; 0xbc <ADC_voidInit+0x1a>
      a6:	18 f0       	brcs	.+6      	; 0xae <ADC_voidInit+0xc>
      a8:	82 30       	cpi	r24, 0x02	; 2
      aa:	79 f0       	breq	.+30     	; 0xca <ADC_voidInit+0x28>
      ac:	14 c0       	rjmp	.+40     	; 0xd6 <ADC_voidInit+0x34>
		case ADC_AREF:
		CLEAR_BIT(ADMUX_REGISTER,ADC_REFS0_BIT);
      ae:	87 b1       	in	r24, 0x07	; 7
      b0:	8f 7b       	andi	r24, 0xBF	; 191
      b2:	87 b9       	out	0x07, r24	; 7
		CLEAR_BIT(ADMUX_REGISTER,ADC_REFS1_BIT);
      b4:	87 b1       	in	r24, 0x07	; 7
      b6:	8f 77       	andi	r24, 0x7F	; 127
      b8:	87 b9       	out	0x07, r24	; 7
		break;
      ba:	0d c0       	rjmp	.+26     	; 0xd6 <ADC_voidInit+0x34>
		case ADC_AVCC:
		SET_BIT  (ADMUX_REGISTER,ADC_REFS0_BIT);
      bc:	87 b1       	in	r24, 0x07	; 7
      be:	80 64       	ori	r24, 0x40	; 64
      c0:	87 b9       	out	0x07, r24	; 7
		CLEAR_BIT(ADMUX_REGISTER,ADC_REFS1_BIT);
      c2:	87 b1       	in	r24, 0x07	; 7
      c4:	8f 77       	andi	r24, 0x7F	; 127
      c6:	87 b9       	out	0x07, r24	; 7
		break;
      c8:	06 c0       	rjmp	.+12     	; 0xd6 <ADC_voidInit+0x34>
		case ADC_INTERNAL_VREF:
		SET_BIT  (ADMUX_REGISTER,ADC_REFS0_BIT);
      ca:	87 b1       	in	r24, 0x07	; 7
      cc:	80 64       	ori	r24, 0x40	; 64
      ce:	87 b9       	out	0x07, r24	; 7
		SET_BIT  (ADMUX_REGISTER,ADC_REFS1_BIT);
      d0:	87 b1       	in	r24, 0x07	; 7
      d2:	80 68       	ori	r24, 0x80	; 128
      d4:	87 b9       	out	0x07, r24	; 7
		break;
	}
	//choosing right adjustment 
	CLEAR_BIT(ADMUX_REGISTER,ADC_ADLAR_BIT);
      d6:	87 b1       	in	r24, 0x07	; 7
      d8:	8f 7d       	andi	r24, 0xDF	; 223
      da:	87 b9       	out	0x07, r24	; 7
	
	//enable ADC
	SET_BIT  (ADCSRA_REGISTER,ADC_ADEN_BIT);
      dc:	86 b1       	in	r24, 0x06	; 6
      de:	80 68       	ori	r24, 0x80	; 128
      e0:	86 b9       	out	0x06, r24	; 6
	
	//disable auto trigger
	CLEAR_BIT(ADCSRA_REGISTER,ADC_ADATE_BIT);
      e2:	86 b1       	in	r24, 0x06	; 6
      e4:	8f 7d       	andi	r24, 0xDF	; 223
      e6:	86 b9       	out	0x06, r24	; 6
	
	//disable ADC interrupt
	CLEAR_BIT(ADCSRA_REGISTER,ADC_ADIE_BIT);
      e8:	86 b1       	in	r24, 0x06	; 6
      ea:	87 7f       	andi	r24, 0xF7	; 247
      ec:	86 b9       	out	0x06, r24	; 6
	
	//setting prescaler to /128
	SET_BIT(ADCSRA_REGISTER,ADC_ADPS2_BIT);
      ee:	86 b1       	in	r24, 0x06	; 6
      f0:	84 60       	ori	r24, 0x04	; 4
      f2:	86 b9       	out	0x06, r24	; 6
	SET_BIT(ADCSRA_REGISTER,ADC_ADPS1_BIT);
      f4:	86 b1       	in	r24, 0x06	; 6
      f6:	82 60       	ori	r24, 0x02	; 2
      f8:	86 b9       	out	0x06, r24	; 6
	SET_BIT(ADCSRA_REGISTER,ADC_ADPS0_BIT);
      fa:	86 b1       	in	r24, 0x06	; 6
      fc:	81 60       	ori	r24, 0x01	; 1
      fe:	86 b9       	out	0x06, r24	; 6
     100:	08 95       	ret

00000102 <ADC_u16GetAdcResult>:
	
}
u16  ADC_u16GetAdcResult(u8 copy_u8AdcChannelId){
	switch(copy_u8AdcChannelId){
     102:	90 e0       	ldi	r25, 0x00	; 0
     104:	88 30       	cpi	r24, 0x08	; 8
     106:	91 05       	cpc	r25, r1
     108:	08 f0       	brcs	.+2      	; 0x10c <ADC_u16GetAdcResult+0xa>
     10a:	ac c0       	rjmp	.+344    	; 0x264 <ADC_u16GetAdcResult+0x162>
     10c:	fc 01       	movw	r30, r24
     10e:	e6 5d       	subi	r30, 0xD6	; 214
     110:	ff 4f       	sbci	r31, 0xFF	; 255
     112:	0c 94 e4 0d 	jmp	0x1bc8	; 0x1bc8 <__tablejump2__>
		case ADC_ADC0:
		CLEAR_BIT(ADMUX_REGISTER,ADC_MUX0_BIT);
     116:	87 b1       	in	r24, 0x07	; 7
     118:	8e 7f       	andi	r24, 0xFE	; 254
     11a:	87 b9       	out	0x07, r24	; 7
		CLEAR_BIT(ADMUX_REGISTER,ADC_MUX1_BIT);
     11c:	87 b1       	in	r24, 0x07	; 7
     11e:	8d 7f       	andi	r24, 0xFD	; 253
     120:	87 b9       	out	0x07, r24	; 7
		CLEAR_BIT(ADMUX_REGISTER,ADC_MUX2_BIT);
     122:	87 b1       	in	r24, 0x07	; 7
     124:	8b 7f       	andi	r24, 0xFB	; 251
     126:	87 b9       	out	0x07, r24	; 7
		CLEAR_BIT(ADMUX_REGISTER,ADC_MUX3_BIT);
     128:	87 b1       	in	r24, 0x07	; 7
     12a:	87 7f       	andi	r24, 0xF7	; 247
     12c:	87 b9       	out	0x07, r24	; 7
		CLEAR_BIT(ADMUX_REGISTER,ADC_MUX4_BIT);
     12e:	87 b1       	in	r24, 0x07	; 7
     130:	8f 7e       	andi	r24, 0xEF	; 239
     132:	87 b9       	out	0x07, r24	; 7
		DIO_voidSetPinDirection(DIO_PORTA,DIO_PIN0,DIO_INPUT);
     134:	40 e0       	ldi	r20, 0x00	; 0
     136:	60 e0       	ldi	r22, 0x00	; 0
     138:	80 e0       	ldi	r24, 0x00	; 0
     13a:	0e 94 3d 01 	call	0x27a	; 0x27a <DIO_voidSetPinDirection>
		break;
     13e:	92 c0       	rjmp	.+292    	; 0x264 <ADC_u16GetAdcResult+0x162>
		case ADC_ADC1:
		SET_BIT  (ADMUX_REGISTER,ADC_MUX0_BIT);
     140:	87 b1       	in	r24, 0x07	; 7
     142:	81 60       	ori	r24, 0x01	; 1
     144:	87 b9       	out	0x07, r24	; 7
		CLEAR_BIT(ADMUX_REGISTER,ADC_MUX1_BIT);
     146:	87 b1       	in	r24, 0x07	; 7
     148:	8d 7f       	andi	r24, 0xFD	; 253
     14a:	87 b9       	out	0x07, r24	; 7
		CLEAR_BIT(ADMUX_REGISTER,ADC_MUX2_BIT);
     14c:	87 b1       	in	r24, 0x07	; 7
     14e:	8b 7f       	andi	r24, 0xFB	; 251
     150:	87 b9       	out	0x07, r24	; 7
		CLEAR_BIT(ADMUX_REGISTER,ADC_MUX3_BIT);
     152:	87 b1       	in	r24, 0x07	; 7
     154:	87 7f       	andi	r24, 0xF7	; 247
     156:	87 b9       	out	0x07, r24	; 7
		CLEAR_BIT(ADMUX_REGISTER,ADC_MUX4_BIT);
     158:	87 b1       	in	r24, 0x07	; 7
     15a:	8f 7e       	andi	r24, 0xEF	; 239
     15c:	87 b9       	out	0x07, r24	; 7
		DIO_voidSetPinDirection(DIO_PORTA,DIO_PIN1,DIO_INPUT);
     15e:	40 e0       	ldi	r20, 0x00	; 0
     160:	61 e0       	ldi	r22, 0x01	; 1
     162:	80 e0       	ldi	r24, 0x00	; 0
     164:	0e 94 3d 01 	call	0x27a	; 0x27a <DIO_voidSetPinDirection>
		break;
     168:	7d c0       	rjmp	.+250    	; 0x264 <ADC_u16GetAdcResult+0x162>
		case ADC_ADC2:
		CLEAR_BIT(ADMUX_REGISTER,ADC_MUX0_BIT);
     16a:	87 b1       	in	r24, 0x07	; 7
     16c:	8e 7f       	andi	r24, 0xFE	; 254
     16e:	87 b9       	out	0x07, r24	; 7
		SET_BIT  (ADMUX_REGISTER,ADC_MUX1_BIT);
     170:	87 b1       	in	r24, 0x07	; 7
     172:	82 60       	ori	r24, 0x02	; 2
     174:	87 b9       	out	0x07, r24	; 7
		CLEAR_BIT(ADMUX_REGISTER,ADC_MUX2_BIT);
     176:	87 b1       	in	r24, 0x07	; 7
     178:	8b 7f       	andi	r24, 0xFB	; 251
     17a:	87 b9       	out	0x07, r24	; 7
		CLEAR_BIT(ADMUX_REGISTER,ADC_MUX3_BIT);
     17c:	87 b1       	in	r24, 0x07	; 7
     17e:	87 7f       	andi	r24, 0xF7	; 247
     180:	87 b9       	out	0x07, r24	; 7
		CLEAR_BIT(ADMUX_REGISTER,ADC_MUX4_BIT);
     182:	87 b1       	in	r24, 0x07	; 7
     184:	8f 7e       	andi	r24, 0xEF	; 239
     186:	87 b9       	out	0x07, r24	; 7
		DIO_voidSetPinDirection(DIO_PORTA,DIO_PIN2,DIO_INPUT);
     188:	40 e0       	ldi	r20, 0x00	; 0
     18a:	62 e0       	ldi	r22, 0x02	; 2
     18c:	80 e0       	ldi	r24, 0x00	; 0
     18e:	0e 94 3d 01 	call	0x27a	; 0x27a <DIO_voidSetPinDirection>
		break;
     192:	68 c0       	rjmp	.+208    	; 0x264 <ADC_u16GetAdcResult+0x162>
		case ADC_ADC3:
		SET_BIT  (ADMUX_REGISTER,ADC_MUX0_BIT);
     194:	87 b1       	in	r24, 0x07	; 7
     196:	81 60       	ori	r24, 0x01	; 1
     198:	87 b9       	out	0x07, r24	; 7
		SET_BIT  (ADMUX_REGISTER,ADC_MUX1_BIT);
     19a:	87 b1       	in	r24, 0x07	; 7
     19c:	82 60       	ori	r24, 0x02	; 2
     19e:	87 b9       	out	0x07, r24	; 7
		CLEAR_BIT(ADMUX_REGISTER,ADC_MUX2_BIT);
     1a0:	87 b1       	in	r24, 0x07	; 7
     1a2:	8b 7f       	andi	r24, 0xFB	; 251
     1a4:	87 b9       	out	0x07, r24	; 7
		CLEAR_BIT(ADMUX_REGISTER,ADC_MUX3_BIT);
     1a6:	87 b1       	in	r24, 0x07	; 7
     1a8:	87 7f       	andi	r24, 0xF7	; 247
     1aa:	87 b9       	out	0x07, r24	; 7
		CLEAR_BIT(ADMUX_REGISTER,ADC_MUX4_BIT);
     1ac:	87 b1       	in	r24, 0x07	; 7
     1ae:	8f 7e       	andi	r24, 0xEF	; 239
     1b0:	87 b9       	out	0x07, r24	; 7
		DIO_voidSetPinDirection(DIO_PORTA,DIO_PIN3,DIO_INPUT);
     1b2:	40 e0       	ldi	r20, 0x00	; 0
     1b4:	63 e0       	ldi	r22, 0x03	; 3
     1b6:	80 e0       	ldi	r24, 0x00	; 0
     1b8:	0e 94 3d 01 	call	0x27a	; 0x27a <DIO_voidSetPinDirection>
		break;
     1bc:	53 c0       	rjmp	.+166    	; 0x264 <ADC_u16GetAdcResult+0x162>
		case ADC_ADC4:
		CLEAR_BIT(ADMUX_REGISTER,ADC_MUX0_BIT);
     1be:	87 b1       	in	r24, 0x07	; 7
     1c0:	8e 7f       	andi	r24, 0xFE	; 254
     1c2:	87 b9       	out	0x07, r24	; 7
		CLEAR_BIT(ADMUX_REGISTER,ADC_MUX1_BIT);
     1c4:	87 b1       	in	r24, 0x07	; 7
     1c6:	8d 7f       	andi	r24, 0xFD	; 253
     1c8:	87 b9       	out	0x07, r24	; 7
		SET_BIT  (ADMUX_REGISTER,ADC_MUX2_BIT);
     1ca:	87 b1       	in	r24, 0x07	; 7
     1cc:	84 60       	ori	r24, 0x04	; 4
     1ce:	87 b9       	out	0x07, r24	; 7
		CLEAR_BIT(ADMUX_REGISTER,ADC_MUX3_BIT);
     1d0:	87 b1       	in	r24, 0x07	; 7
     1d2:	87 7f       	andi	r24, 0xF7	; 247
     1d4:	87 b9       	out	0x07, r24	; 7
		CLEAR_BIT(ADMUX_REGISTER,ADC_MUX4_BIT);
     1d6:	87 b1       	in	r24, 0x07	; 7
     1d8:	8f 7e       	andi	r24, 0xEF	; 239
     1da:	87 b9       	out	0x07, r24	; 7
		DIO_voidSetPinDirection(DIO_PORTA,DIO_PIN4,DIO_INPUT);
     1dc:	40 e0       	ldi	r20, 0x00	; 0
     1de:	64 e0       	ldi	r22, 0x04	; 4
     1e0:	80 e0       	ldi	r24, 0x00	; 0
     1e2:	0e 94 3d 01 	call	0x27a	; 0x27a <DIO_voidSetPinDirection>
		break;
     1e6:	3e c0       	rjmp	.+124    	; 0x264 <ADC_u16GetAdcResult+0x162>
		case ADC_ADC5:
		SET_BIT  (ADMUX_REGISTER,ADC_MUX0_BIT);
     1e8:	87 b1       	in	r24, 0x07	; 7
     1ea:	81 60       	ori	r24, 0x01	; 1
     1ec:	87 b9       	out	0x07, r24	; 7
		CLEAR_BIT(ADMUX_REGISTER,ADC_MUX1_BIT);
     1ee:	87 b1       	in	r24, 0x07	; 7
     1f0:	8d 7f       	andi	r24, 0xFD	; 253
     1f2:	87 b9       	out	0x07, r24	; 7
		SET_BIT  (ADMUX_REGISTER,ADC_MUX2_BIT);
     1f4:	87 b1       	in	r24, 0x07	; 7
     1f6:	84 60       	ori	r24, 0x04	; 4
     1f8:	87 b9       	out	0x07, r24	; 7
		CLEAR_BIT(ADMUX_REGISTER,ADC_MUX3_BIT);
     1fa:	87 b1       	in	r24, 0x07	; 7
     1fc:	87 7f       	andi	r24, 0xF7	; 247
     1fe:	87 b9       	out	0x07, r24	; 7
		CLEAR_BIT(ADMUX_REGISTER,ADC_MUX4_BIT);
     200:	87 b1       	in	r24, 0x07	; 7
     202:	8f 7e       	andi	r24, 0xEF	; 239
     204:	87 b9       	out	0x07, r24	; 7
		DIO_voidSetPinDirection(DIO_PORTA,DIO_PIN5,DIO_INPUT);
     206:	40 e0       	ldi	r20, 0x00	; 0
     208:	65 e0       	ldi	r22, 0x05	; 5
     20a:	80 e0       	ldi	r24, 0x00	; 0
     20c:	0e 94 3d 01 	call	0x27a	; 0x27a <DIO_voidSetPinDirection>
		break;
     210:	29 c0       	rjmp	.+82     	; 0x264 <ADC_u16GetAdcResult+0x162>
		case ADC_ADC6:
		CLEAR_BIT(ADMUX_REGISTER,ADC_MUX0_BIT);
     212:	87 b1       	in	r24, 0x07	; 7
     214:	8e 7f       	andi	r24, 0xFE	; 254
     216:	87 b9       	out	0x07, r24	; 7
		SET_BIT  (ADMUX_REGISTER,ADC_MUX1_BIT);
     218:	87 b1       	in	r24, 0x07	; 7
     21a:	82 60       	ori	r24, 0x02	; 2
     21c:	87 b9       	out	0x07, r24	; 7
		SET_BIT  (ADMUX_REGISTER,ADC_MUX2_BIT);
     21e:	87 b1       	in	r24, 0x07	; 7
     220:	84 60       	ori	r24, 0x04	; 4
     222:	87 b9       	out	0x07, r24	; 7
		CLEAR_BIT(ADMUX_REGISTER,ADC_MUX3_BIT);
     224:	87 b1       	in	r24, 0x07	; 7
     226:	87 7f       	andi	r24, 0xF7	; 247
     228:	87 b9       	out	0x07, r24	; 7
		CLEAR_BIT(ADMUX_REGISTER,ADC_MUX4_BIT);
     22a:	87 b1       	in	r24, 0x07	; 7
     22c:	8f 7e       	andi	r24, 0xEF	; 239
     22e:	87 b9       	out	0x07, r24	; 7
		DIO_voidSetPinDirection(DIO_PORTA,DIO_PIN6,DIO_INPUT);
     230:	40 e0       	ldi	r20, 0x00	; 0
     232:	66 e0       	ldi	r22, 0x06	; 6
     234:	80 e0       	ldi	r24, 0x00	; 0
     236:	0e 94 3d 01 	call	0x27a	; 0x27a <DIO_voidSetPinDirection>
		break;
     23a:	14 c0       	rjmp	.+40     	; 0x264 <ADC_u16GetAdcResult+0x162>
		case ADC_ADC7:
		SET_BIT  (ADMUX_REGISTER,ADC_MUX0_BIT);
     23c:	87 b1       	in	r24, 0x07	; 7
     23e:	81 60       	ori	r24, 0x01	; 1
     240:	87 b9       	out	0x07, r24	; 7
		SET_BIT  (ADMUX_REGISTER,ADC_MUX1_BIT);
     242:	87 b1       	in	r24, 0x07	; 7
     244:	82 60       	ori	r24, 0x02	; 2
     246:	87 b9       	out	0x07, r24	; 7
		SET_BIT  (ADMUX_REGISTER,ADC_MUX2_BIT);
     248:	87 b1       	in	r24, 0x07	; 7
     24a:	84 60       	ori	r24, 0x04	; 4
     24c:	87 b9       	out	0x07, r24	; 7
		CLEAR_BIT(ADMUX_REGISTER,ADC_MUX3_BIT);
     24e:	87 b1       	in	r24, 0x07	; 7
     250:	87 7f       	andi	r24, 0xF7	; 247
     252:	87 b9       	out	0x07, r24	; 7
		CLEAR_BIT(ADMUX_REGISTER,ADC_MUX4_BIT);
     254:	87 b1       	in	r24, 0x07	; 7
     256:	8f 7e       	andi	r24, 0xEF	; 239
     258:	87 b9       	out	0x07, r24	; 7
		DIO_voidSetPinDirection(DIO_PORTA,DIO_PIN7,DIO_INPUT);
     25a:	40 e0       	ldi	r20, 0x00	; 0
     25c:	67 e0       	ldi	r22, 0x07	; 7
     25e:	80 e0       	ldi	r24, 0x00	; 0
     260:	0e 94 3d 01 	call	0x27a	; 0x27a <DIO_voidSetPinDirection>
		break;
	}
	//start conversion
	SET_BIT(ADCSRA_REGISTER,ADC_ADSC_BIT);
     264:	86 b1       	in	r24, 0x06	; 6
     266:	80 64       	ori	r24, 0x40	; 64
     268:	86 b9       	out	0x06, r24	; 6
	
	//busy wait for the conversion to be done
	while(GET_BIT(ADCSRA_REGISTER,ADC_ADIF_BIT) == 0);
     26a:	34 9b       	sbis	0x06, 4	; 6
     26c:	fe cf       	rjmp	.-4      	; 0x26a <ADC_u16GetAdcResult+0x168>
	
	//clearing the flag manually
	SET_BIT(ADCSRA_REGISTER,ADC_ADIF_BIT);
     26e:	86 b1       	in	r24, 0x06	; 6
     270:	80 61       	ori	r24, 0x10	; 16
     272:	86 b9       	out	0x06, r24	; 6
	
	//returning result
	return (u16)ADC_DATA_REGISTER;
     274:	84 b1       	in	r24, 0x04	; 4
     276:	95 b1       	in	r25, 0x05	; 5
}
     278:	08 95       	ret

0000027a <DIO_voidSetPinDirection>:
		break;
		case DIO_PORTC:
		TOGGLE_BIT(PORTC_REGISTER,copy_u8PinId);
		break;
		case DIO_PORTD:
		TOGGLE_BIT(PORTD_REGISTER,copy_u8PinId);
     27a:	81 30       	cpi	r24, 0x01	; 1
     27c:	01 f1       	breq	.+64     	; 0x2be <DIO_voidSetPinDirection+0x44>
     27e:	30 f0       	brcs	.+12     	; 0x28c <DIO_voidSetPinDirection+0x12>
     280:	82 30       	cpi	r24, 0x02	; 2
     282:	b1 f1       	breq	.+108    	; 0x2f0 <DIO_voidSetPinDirection+0x76>
     284:	83 30       	cpi	r24, 0x03	; 3
     286:	09 f4       	brne	.+2      	; 0x28a <DIO_voidSetPinDirection+0x10>
     288:	4c c0       	rjmp	.+152    	; 0x322 <DIO_voidSetPinDirection+0xa8>
     28a:	08 95       	ret
     28c:	41 30       	cpi	r20, 0x01	; 1
     28e:	59 f4       	brne	.+22     	; 0x2a6 <DIO_voidSetPinDirection+0x2c>
     290:	2a b3       	in	r18, 0x1a	; 26
     292:	81 e0       	ldi	r24, 0x01	; 1
     294:	90 e0       	ldi	r25, 0x00	; 0
     296:	02 c0       	rjmp	.+4      	; 0x29c <DIO_voidSetPinDirection+0x22>
     298:	88 0f       	add	r24, r24
     29a:	99 1f       	adc	r25, r25
     29c:	6a 95       	dec	r22
     29e:	e2 f7       	brpl	.-8      	; 0x298 <DIO_voidSetPinDirection+0x1e>
     2a0:	82 2b       	or	r24, r18
     2a2:	8a bb       	out	0x1a, r24	; 26
     2a4:	08 95       	ret
     2a6:	2a b3       	in	r18, 0x1a	; 26
     2a8:	81 e0       	ldi	r24, 0x01	; 1
     2aa:	90 e0       	ldi	r25, 0x00	; 0
     2ac:	02 c0       	rjmp	.+4      	; 0x2b2 <DIO_voidSetPinDirection+0x38>
     2ae:	88 0f       	add	r24, r24
     2b0:	99 1f       	adc	r25, r25
     2b2:	6a 95       	dec	r22
     2b4:	e2 f7       	brpl	.-8      	; 0x2ae <DIO_voidSetPinDirection+0x34>
     2b6:	80 95       	com	r24
     2b8:	82 23       	and	r24, r18
     2ba:	8a bb       	out	0x1a, r24	; 26
     2bc:	08 95       	ret
     2be:	41 30       	cpi	r20, 0x01	; 1
     2c0:	59 f4       	brne	.+22     	; 0x2d8 <DIO_voidSetPinDirection+0x5e>
     2c2:	27 b3       	in	r18, 0x17	; 23
     2c4:	81 e0       	ldi	r24, 0x01	; 1
     2c6:	90 e0       	ldi	r25, 0x00	; 0
     2c8:	02 c0       	rjmp	.+4      	; 0x2ce <DIO_voidSetPinDirection+0x54>
     2ca:	88 0f       	add	r24, r24
     2cc:	99 1f       	adc	r25, r25
     2ce:	6a 95       	dec	r22
     2d0:	e2 f7       	brpl	.-8      	; 0x2ca <DIO_voidSetPinDirection+0x50>
     2d2:	82 2b       	or	r24, r18
     2d4:	87 bb       	out	0x17, r24	; 23
     2d6:	08 95       	ret
     2d8:	27 b3       	in	r18, 0x17	; 23
     2da:	81 e0       	ldi	r24, 0x01	; 1
     2dc:	90 e0       	ldi	r25, 0x00	; 0
     2de:	02 c0       	rjmp	.+4      	; 0x2e4 <DIO_voidSetPinDirection+0x6a>
     2e0:	88 0f       	add	r24, r24
     2e2:	99 1f       	adc	r25, r25
     2e4:	6a 95       	dec	r22
     2e6:	e2 f7       	brpl	.-8      	; 0x2e0 <DIO_voidSetPinDirection+0x66>
     2e8:	80 95       	com	r24
     2ea:	82 23       	and	r24, r18
     2ec:	87 bb       	out	0x17, r24	; 23
     2ee:	08 95       	ret
     2f0:	41 30       	cpi	r20, 0x01	; 1
     2f2:	59 f4       	brne	.+22     	; 0x30a <DIO_voidSetPinDirection+0x90>
     2f4:	24 b3       	in	r18, 0x14	; 20
     2f6:	81 e0       	ldi	r24, 0x01	; 1
     2f8:	90 e0       	ldi	r25, 0x00	; 0
     2fa:	02 c0       	rjmp	.+4      	; 0x300 <DIO_voidSetPinDirection+0x86>
     2fc:	88 0f       	add	r24, r24
     2fe:	99 1f       	adc	r25, r25
     300:	6a 95       	dec	r22
     302:	e2 f7       	brpl	.-8      	; 0x2fc <DIO_voidSetPinDirection+0x82>
     304:	82 2b       	or	r24, r18
     306:	84 bb       	out	0x14, r24	; 20
     308:	08 95       	ret
     30a:	24 b3       	in	r18, 0x14	; 20
     30c:	81 e0       	ldi	r24, 0x01	; 1
     30e:	90 e0       	ldi	r25, 0x00	; 0
     310:	02 c0       	rjmp	.+4      	; 0x316 <DIO_voidSetPinDirection+0x9c>
     312:	88 0f       	add	r24, r24
     314:	99 1f       	adc	r25, r25
     316:	6a 95       	dec	r22
     318:	e2 f7       	brpl	.-8      	; 0x312 <DIO_voidSetPinDirection+0x98>
     31a:	80 95       	com	r24
     31c:	82 23       	and	r24, r18
     31e:	84 bb       	out	0x14, r24	; 20
     320:	08 95       	ret
     322:	41 30       	cpi	r20, 0x01	; 1
     324:	59 f4       	brne	.+22     	; 0x33c <DIO_voidSetPinDirection+0xc2>
     326:	21 b3       	in	r18, 0x11	; 17
     328:	81 e0       	ldi	r24, 0x01	; 1
     32a:	90 e0       	ldi	r25, 0x00	; 0
     32c:	02 c0       	rjmp	.+4      	; 0x332 <DIO_voidSetPinDirection+0xb8>
     32e:	88 0f       	add	r24, r24
     330:	99 1f       	adc	r25, r25
     332:	6a 95       	dec	r22
     334:	e2 f7       	brpl	.-8      	; 0x32e <DIO_voidSetPinDirection+0xb4>
     336:	82 2b       	or	r24, r18
     338:	81 bb       	out	0x11, r24	; 17
     33a:	08 95       	ret
     33c:	21 b3       	in	r18, 0x11	; 17
     33e:	81 e0       	ldi	r24, 0x01	; 1
     340:	90 e0       	ldi	r25, 0x00	; 0
     342:	02 c0       	rjmp	.+4      	; 0x348 <DIO_voidSetPinDirection+0xce>
     344:	88 0f       	add	r24, r24
     346:	99 1f       	adc	r25, r25
     348:	6a 95       	dec	r22
     34a:	e2 f7       	brpl	.-8      	; 0x344 <DIO_voidSetPinDirection+0xca>
     34c:	80 95       	com	r24
     34e:	82 23       	and	r24, r18
     350:	81 bb       	out	0x11, r24	; 17
     352:	08 95       	ret

00000354 <DIO_voidSetPinValue>:
     354:	81 30       	cpi	r24, 0x01	; 1
     356:	01 f1       	breq	.+64     	; 0x398 <DIO_voidSetPinValue+0x44>
     358:	30 f0       	brcs	.+12     	; 0x366 <DIO_voidSetPinValue+0x12>
     35a:	82 30       	cpi	r24, 0x02	; 2
     35c:	b1 f1       	breq	.+108    	; 0x3ca <DIO_voidSetPinValue+0x76>
     35e:	83 30       	cpi	r24, 0x03	; 3
     360:	09 f4       	brne	.+2      	; 0x364 <DIO_voidSetPinValue+0x10>
     362:	4c c0       	rjmp	.+152    	; 0x3fc <DIO_voidSetPinValue+0xa8>
     364:	08 95       	ret
     366:	41 30       	cpi	r20, 0x01	; 1
     368:	59 f4       	brne	.+22     	; 0x380 <DIO_voidSetPinValue+0x2c>
     36a:	2b b3       	in	r18, 0x1b	; 27
     36c:	81 e0       	ldi	r24, 0x01	; 1
     36e:	90 e0       	ldi	r25, 0x00	; 0
     370:	02 c0       	rjmp	.+4      	; 0x376 <DIO_voidSetPinValue+0x22>
     372:	88 0f       	add	r24, r24
     374:	99 1f       	adc	r25, r25
     376:	6a 95       	dec	r22
     378:	e2 f7       	brpl	.-8      	; 0x372 <DIO_voidSetPinValue+0x1e>
     37a:	82 2b       	or	r24, r18
     37c:	8b bb       	out	0x1b, r24	; 27
     37e:	08 95       	ret
     380:	2b b3       	in	r18, 0x1b	; 27
     382:	81 e0       	ldi	r24, 0x01	; 1
     384:	90 e0       	ldi	r25, 0x00	; 0
     386:	02 c0       	rjmp	.+4      	; 0x38c <DIO_voidSetPinValue+0x38>
     388:	88 0f       	add	r24, r24
     38a:	99 1f       	adc	r25, r25
     38c:	6a 95       	dec	r22
     38e:	e2 f7       	brpl	.-8      	; 0x388 <DIO_voidSetPinValue+0x34>
     390:	80 95       	com	r24
     392:	82 23       	and	r24, r18
     394:	8b bb       	out	0x1b, r24	; 27
     396:	08 95       	ret
     398:	41 30       	cpi	r20, 0x01	; 1
     39a:	59 f4       	brne	.+22     	; 0x3b2 <DIO_voidSetPinValue+0x5e>
     39c:	28 b3       	in	r18, 0x18	; 24
     39e:	81 e0       	ldi	r24, 0x01	; 1
     3a0:	90 e0       	ldi	r25, 0x00	; 0
     3a2:	02 c0       	rjmp	.+4      	; 0x3a8 <DIO_voidSetPinValue+0x54>
     3a4:	88 0f       	add	r24, r24
     3a6:	99 1f       	adc	r25, r25
     3a8:	6a 95       	dec	r22
     3aa:	e2 f7       	brpl	.-8      	; 0x3a4 <DIO_voidSetPinValue+0x50>
     3ac:	82 2b       	or	r24, r18
     3ae:	88 bb       	out	0x18, r24	; 24
     3b0:	08 95       	ret
     3b2:	28 b3       	in	r18, 0x18	; 24
     3b4:	81 e0       	ldi	r24, 0x01	; 1
     3b6:	90 e0       	ldi	r25, 0x00	; 0
     3b8:	02 c0       	rjmp	.+4      	; 0x3be <DIO_voidSetPinValue+0x6a>
     3ba:	88 0f       	add	r24, r24
     3bc:	99 1f       	adc	r25, r25
     3be:	6a 95       	dec	r22
     3c0:	e2 f7       	brpl	.-8      	; 0x3ba <DIO_voidSetPinValue+0x66>
     3c2:	80 95       	com	r24
     3c4:	82 23       	and	r24, r18
     3c6:	88 bb       	out	0x18, r24	; 24
     3c8:	08 95       	ret
     3ca:	41 30       	cpi	r20, 0x01	; 1
     3cc:	59 f4       	brne	.+22     	; 0x3e4 <DIO_voidSetPinValue+0x90>
     3ce:	25 b3       	in	r18, 0x15	; 21
     3d0:	81 e0       	ldi	r24, 0x01	; 1
     3d2:	90 e0       	ldi	r25, 0x00	; 0
     3d4:	02 c0       	rjmp	.+4      	; 0x3da <DIO_voidSetPinValue+0x86>
     3d6:	88 0f       	add	r24, r24
     3d8:	99 1f       	adc	r25, r25
     3da:	6a 95       	dec	r22
     3dc:	e2 f7       	brpl	.-8      	; 0x3d6 <DIO_voidSetPinValue+0x82>
     3de:	82 2b       	or	r24, r18
     3e0:	85 bb       	out	0x15, r24	; 21
     3e2:	08 95       	ret
     3e4:	25 b3       	in	r18, 0x15	; 21
     3e6:	81 e0       	ldi	r24, 0x01	; 1
     3e8:	90 e0       	ldi	r25, 0x00	; 0
     3ea:	02 c0       	rjmp	.+4      	; 0x3f0 <DIO_voidSetPinValue+0x9c>
     3ec:	88 0f       	add	r24, r24
     3ee:	99 1f       	adc	r25, r25
     3f0:	6a 95       	dec	r22
     3f2:	e2 f7       	brpl	.-8      	; 0x3ec <DIO_voidSetPinValue+0x98>
     3f4:	80 95       	com	r24
     3f6:	82 23       	and	r24, r18
     3f8:	85 bb       	out	0x15, r24	; 21
     3fa:	08 95       	ret
     3fc:	41 30       	cpi	r20, 0x01	; 1
     3fe:	59 f4       	brne	.+22     	; 0x416 <__EEPROM_REGION_LENGTH__+0x16>
     400:	22 b3       	in	r18, 0x12	; 18
     402:	81 e0       	ldi	r24, 0x01	; 1
     404:	90 e0       	ldi	r25, 0x00	; 0
     406:	02 c0       	rjmp	.+4      	; 0x40c <__EEPROM_REGION_LENGTH__+0xc>
     408:	88 0f       	add	r24, r24
     40a:	99 1f       	adc	r25, r25
     40c:	6a 95       	dec	r22
     40e:	e2 f7       	brpl	.-8      	; 0x408 <__EEPROM_REGION_LENGTH__+0x8>
     410:	82 2b       	or	r24, r18
     412:	82 bb       	out	0x12, r24	; 18
     414:	08 95       	ret
     416:	22 b3       	in	r18, 0x12	; 18
     418:	81 e0       	ldi	r24, 0x01	; 1
     41a:	90 e0       	ldi	r25, 0x00	; 0
     41c:	02 c0       	rjmp	.+4      	; 0x422 <__EEPROM_REGION_LENGTH__+0x22>
     41e:	88 0f       	add	r24, r24
     420:	99 1f       	adc	r25, r25
     422:	6a 95       	dec	r22
     424:	e2 f7       	brpl	.-8      	; 0x41e <__EEPROM_REGION_LENGTH__+0x1e>
     426:	80 95       	com	r24
     428:	82 23       	and	r24, r18
     42a:	82 bb       	out	0x12, r24	; 18
     42c:	08 95       	ret

0000042e <DIO_voidGetPinValue>:
		break;
	}
}
void DIO_voidGetPinValue(u8 copy_u8PortId,u8 copy_u8PinId,u8* copy_pu8InputValue){
	switch(copy_u8PortId){
     42e:	81 30       	cpi	r24, 0x01	; 1
     430:	89 f0       	breq	.+34     	; 0x454 <DIO_voidGetPinValue+0x26>
     432:	28 f0       	brcs	.+10     	; 0x43e <DIO_voidGetPinValue+0x10>
     434:	82 30       	cpi	r24, 0x02	; 2
     436:	c9 f0       	breq	.+50     	; 0x46a <DIO_voidGetPinValue+0x3c>
     438:	83 30       	cpi	r24, 0x03	; 3
     43a:	11 f1       	breq	.+68     	; 0x480 <DIO_voidGetPinValue+0x52>
     43c:	08 95       	ret
		case DIO_PORTA:
		*copy_pu8InputValue = GET_BIT(PINA_REGISTER,copy_u8PinId);
     43e:	89 b3       	in	r24, 0x19	; 25
     440:	90 e0       	ldi	r25, 0x00	; 0
     442:	02 c0       	rjmp	.+4      	; 0x448 <DIO_voidGetPinValue+0x1a>
     444:	95 95       	asr	r25
     446:	87 95       	ror	r24
     448:	6a 95       	dec	r22
     44a:	e2 f7       	brpl	.-8      	; 0x444 <DIO_voidGetPinValue+0x16>
     44c:	81 70       	andi	r24, 0x01	; 1
     44e:	fa 01       	movw	r30, r20
     450:	80 83       	st	Z, r24
		break;
     452:	08 95       	ret
		case DIO_PORTB:
		*copy_pu8InputValue = GET_BIT(PINB_REGISTER,copy_u8PinId);
     454:	86 b3       	in	r24, 0x16	; 22
     456:	90 e0       	ldi	r25, 0x00	; 0
     458:	02 c0       	rjmp	.+4      	; 0x45e <DIO_voidGetPinValue+0x30>
     45a:	95 95       	asr	r25
     45c:	87 95       	ror	r24
     45e:	6a 95       	dec	r22
     460:	e2 f7       	brpl	.-8      	; 0x45a <DIO_voidGetPinValue+0x2c>
     462:	81 70       	andi	r24, 0x01	; 1
     464:	fa 01       	movw	r30, r20
     466:	80 83       	st	Z, r24
		break;
     468:	08 95       	ret
		case DIO_PORTC:
		*copy_pu8InputValue = GET_BIT(PINC_REGISTER,copy_u8PinId);
     46a:	83 b3       	in	r24, 0x13	; 19
     46c:	90 e0       	ldi	r25, 0x00	; 0
     46e:	02 c0       	rjmp	.+4      	; 0x474 <DIO_voidGetPinValue+0x46>
     470:	95 95       	asr	r25
     472:	87 95       	ror	r24
     474:	6a 95       	dec	r22
     476:	e2 f7       	brpl	.-8      	; 0x470 <DIO_voidGetPinValue+0x42>
     478:	81 70       	andi	r24, 0x01	; 1
     47a:	fa 01       	movw	r30, r20
     47c:	80 83       	st	Z, r24
		break;
     47e:	08 95       	ret
		case DIO_PORTD:
		*copy_pu8InputValue = GET_BIT(PIND_REGISTER,copy_u8PinId);
     480:	80 b3       	in	r24, 0x10	; 16
     482:	90 e0       	ldi	r25, 0x00	; 0
     484:	02 c0       	rjmp	.+4      	; 0x48a <DIO_voidGetPinValue+0x5c>
     486:	95 95       	asr	r25
     488:	87 95       	ror	r24
     48a:	6a 95       	dec	r22
     48c:	e2 f7       	brpl	.-8      	; 0x486 <DIO_voidGetPinValue+0x58>
     48e:	81 70       	andi	r24, 0x01	; 1
     490:	fa 01       	movw	r30, r20
     492:	80 83       	st	Z, r24
     494:	08 95       	ret

00000496 <EEPROM_voidInit>:
#include "i2c_interface.h"
#include "eeprom_interface.h"
#include "eeprom_private.h"

void EEPROM_voidInit(void){
	I2C_voidMasterInit();
     496:	0e 94 03 03 	call	0x606	; 0x606 <I2C_voidMasterInit>
     49a:	08 95       	ret

0000049c <EEPROM_voidWriteByte>:
}

void EEPROM_voidWriteByte(u16 copy_u16WordAddress,u8 copy_u8Data){
     49c:	1f 93       	push	r17
     49e:	cf 93       	push	r28
     4a0:	df 93       	push	r29
     4a2:	d8 2f       	mov	r29, r24
     4a4:	c6 2f       	mov	r28, r22
	u8 local_u8DeviceAddress = EEPROM_FIXED_ADDRESS;
	local_u8DeviceAddress |= (copy_u16WordAddress >> 8);
     4a6:	19 2f       	mov	r17, r25
     4a8:	10 65       	ori	r17, 0x50	; 80
	
	//send start condition
	I2C_voidSendStartCondition();
     4aa:	0e 94 12 03 	call	0x624	; 0x624 <I2C_voidSendStartCondition>
	
	//send device address with write
	I2C_voidSendSlaveAddressWithWrite(local_u8DeviceAddress);
     4ae:	81 2f       	mov	r24, r17
     4b0:	0e 94 35 03 	call	0x66a	; 0x66a <I2C_voidSendSlaveAddressWithWrite>
	
	//send word address
	I2C_voidMasterSendDataByte((u8)copy_u16WordAddress);
     4b4:	8d 2f       	mov	r24, r29
     4b6:	0e 94 5f 03 	call	0x6be	; 0x6be <I2C_voidMasterSendDataByte>
	
	//send data byte
	I2C_voidMasterSendDataByte(copy_u8Data);
     4ba:	8c 2f       	mov	r24, r28
     4bc:	0e 94 5f 03 	call	0x6be	; 0x6be <I2C_voidMasterSendDataByte>
	
	//send stop condition
	I2C_voidSendStopCondition();
     4c0:	0e 94 2e 03 	call	0x65c	; 0x65c <I2C_voidSendStopCondition>
	#else
		//round up by default
		__ticks_dc = (uint32_t)(ceil(fabs(__tmp)));
	#endif

	__builtin_avr_delay_cycles(__ticks_dc);
     4c4:	8f e1       	ldi	r24, 0x1F	; 31
     4c6:	9e e4       	ldi	r25, 0x4E	; 78
     4c8:	01 97       	sbiw	r24, 0x01	; 1
     4ca:	f1 f7       	brne	.-4      	; 0x4c8 <EEPROM_voidWriteByte+0x2c>
     4cc:	00 c0       	rjmp	.+0      	; 0x4ce <EEPROM_voidWriteByte+0x32>
     4ce:	00 00       	nop
	
	//self timed write cycle delay
	_delay_ms(5);
}
     4d0:	df 91       	pop	r29
     4d2:	cf 91       	pop	r28
     4d4:	1f 91       	pop	r17
     4d6:	08 95       	ret

000004d8 <EEPROM_voidReadByte>:

void EEPROM_voidReadByte (u16 copy_u16WordAddress,u8* copy_pu8Data){
     4d8:	0f 93       	push	r16
     4da:	1f 93       	push	r17
     4dc:	cf 93       	push	r28
     4de:	df 93       	push	r29
     4e0:	d8 2f       	mov	r29, r24
     4e2:	8b 01       	movw	r16, r22
	u8 local_u8DeviceAddress = EEPROM_FIXED_ADDRESS;
	local_u8DeviceAddress |= (copy_u16WordAddress >> 8);
     4e4:	c9 2f       	mov	r28, r25
     4e6:	c0 65       	ori	r28, 0x50	; 80
	
	//send start condition
	I2C_voidSendStartCondition();
     4e8:	0e 94 12 03 	call	0x624	; 0x624 <I2C_voidSendStartCondition>
	
	//send device address with write
	I2C_voidSendSlaveAddressWithWrite(local_u8DeviceAddress);
     4ec:	8c 2f       	mov	r24, r28
     4ee:	0e 94 35 03 	call	0x66a	; 0x66a <I2C_voidSendSlaveAddressWithWrite>
	
	//send word address
	I2C_voidMasterSendDataByte((u8)copy_u16WordAddress);
     4f2:	8d 2f       	mov	r24, r29
     4f4:	0e 94 5f 03 	call	0x6be	; 0x6be <I2C_voidMasterSendDataByte>
	
	//send repeated start condition
	I2C_voidSendRepeatedStartCondition();
     4f8:	0e 94 20 03 	call	0x640	; 0x640 <I2C_voidSendRepeatedStartCondition>
	
	//send device address with read
	I2C_voidSendSlaveAddressWithRead(local_u8DeviceAddress);
     4fc:	8c 2f       	mov	r24, r28
     4fe:	0e 94 4a 03 	call	0x694	; 0x694 <I2C_voidSendSlaveAddressWithRead>
	
	//read data byte with NACK
	I2C_voidMasterReceiveDataByteWithoutACK(copy_pu8Data);
     502:	c8 01       	movw	r24, r16
     504:	0e 94 6b 03 	call	0x6d6	; 0x6d6 <I2C_voidMasterReceiveDataByteWithoutACK>
	
	//send stop condition
	I2C_voidSendStopCondition();
     508:	0e 94 2e 03 	call	0x65c	; 0x65c <I2C_voidSendStopCondition>
     50c:	8f e1       	ldi	r24, 0x1F	; 31
     50e:	9e e4       	ldi	r25, 0x4E	; 78
     510:	01 97       	sbiw	r24, 0x01	; 1
     512:	f1 f7       	brne	.-4      	; 0x510 <EEPROM_voidReadByte+0x38>
     514:	00 c0       	rjmp	.+0      	; 0x516 <EEPROM_voidReadByte+0x3e>
     516:	00 00       	nop
	
	//self timed write cycle delay
	_delay_ms(5);
}
     518:	df 91       	pop	r29
     51a:	cf 91       	pop	r28
     51c:	1f 91       	pop	r17
     51e:	0f 91       	pop	r16
     520:	08 95       	ret

00000522 <EXTI_voidExternalInterruptInit>:
#include "DIO_interface.h"
#include "EXTI_interface.h"
#include "EXTI_registers.h"

void EXTI_voidExternalInterruptInit(u8 copy_u8ExtiId,u8 copy_u8SenseContolType){
	switch(copy_u8ExtiId){
     522:	81 30       	cpi	r24, 0x01	; 1
     524:	49 f1       	breq	.+82     	; 0x578 <EXTI_voidExternalInterruptInit+0x56>
     526:	20 f0       	brcs	.+8      	; 0x530 <EXTI_voidExternalInterruptInit+0xe>
     528:	82 30       	cpi	r24, 0x02	; 2
     52a:	09 f4       	brne	.+2      	; 0x52e <EXTI_voidExternalInterruptInit+0xc>
     52c:	49 c0       	rjmp	.+146    	; 0x5c0 <EXTI_voidExternalInterruptInit+0x9e>
     52e:	08 95       	ret
		
		case EXTI_EXTI0:
		switch(copy_u8SenseContolType){
     530:	61 30       	cpi	r22, 0x01	; 1
     532:	69 f0       	breq	.+26     	; 0x54e <EXTI_voidExternalInterruptInit+0x2c>
     534:	28 f0       	brcs	.+10     	; 0x540 <EXTI_voidExternalInterruptInit+0x1e>
     536:	62 30       	cpi	r22, 0x02	; 2
     538:	89 f0       	breq	.+34     	; 0x55c <EXTI_voidExternalInterruptInit+0x3a>
     53a:	63 30       	cpi	r22, 0x03	; 3
     53c:	b1 f0       	breq	.+44     	; 0x56a <EXTI_voidExternalInterruptInit+0x48>
     53e:	08 95       	ret
			case EXTI_LOW_LEVEL:
			CLEAR_BIT(MCUCR_REGISTER,EXTI_ISC00_BIT);
     540:	85 b7       	in	r24, 0x35	; 53
     542:	8e 7f       	andi	r24, 0xFE	; 254
     544:	85 bf       	out	0x35, r24	; 53
			CLEAR_BIT(MCUCR_REGISTER,EXTI_ISC01_BIT);
     546:	85 b7       	in	r24, 0x35	; 53
     548:	8d 7f       	andi	r24, 0xFD	; 253
     54a:	85 bf       	out	0x35, r24	; 53
			break;
     54c:	08 95       	ret
			case EXTI_ANY_LOGICAL_CHANGE:
			SET_BIT  (MCUCR_REGISTER,EXTI_ISC00_BIT);
     54e:	85 b7       	in	r24, 0x35	; 53
     550:	81 60       	ori	r24, 0x01	; 1
     552:	85 bf       	out	0x35, r24	; 53
			CLEAR_BIT(MCUCR_REGISTER,EXTI_ISC01_BIT);
     554:	85 b7       	in	r24, 0x35	; 53
     556:	8d 7f       	andi	r24, 0xFD	; 253
     558:	85 bf       	out	0x35, r24	; 53
			break;
     55a:	08 95       	ret
			case EXTI_FALLING_EDGE:
			CLEAR_BIT(MCUCR_REGISTER,EXTI_ISC00_BIT);
     55c:	85 b7       	in	r24, 0x35	; 53
     55e:	8e 7f       	andi	r24, 0xFE	; 254
     560:	85 bf       	out	0x35, r24	; 53
			SET_BIT  (MCUCR_REGISTER,EXTI_ISC01_BIT);
     562:	85 b7       	in	r24, 0x35	; 53
     564:	82 60       	ori	r24, 0x02	; 2
     566:	85 bf       	out	0x35, r24	; 53
			break;
     568:	08 95       	ret
			case EXTI_RISING_EDGE:
			SET_BIT  (MCUCR_REGISTER,EXTI_ISC00_BIT);
     56a:	85 b7       	in	r24, 0x35	; 53
     56c:	81 60       	ori	r24, 0x01	; 1
     56e:	85 bf       	out	0x35, r24	; 53
			SET_BIT  (MCUCR_REGISTER,EXTI_ISC01_BIT);
     570:	85 b7       	in	r24, 0x35	; 53
     572:	82 60       	ori	r24, 0x02	; 2
     574:	85 bf       	out	0x35, r24	; 53
			break;
     576:	08 95       	ret
		}
		break;
		
		case EXTI_EXTI1:
		switch(copy_u8SenseContolType){
     578:	61 30       	cpi	r22, 0x01	; 1
     57a:	69 f0       	breq	.+26     	; 0x596 <EXTI_voidExternalInterruptInit+0x74>
     57c:	28 f0       	brcs	.+10     	; 0x588 <EXTI_voidExternalInterruptInit+0x66>
     57e:	62 30       	cpi	r22, 0x02	; 2
     580:	89 f0       	breq	.+34     	; 0x5a4 <EXTI_voidExternalInterruptInit+0x82>
     582:	63 30       	cpi	r22, 0x03	; 3
     584:	b1 f0       	breq	.+44     	; 0x5b2 <EXTI_voidExternalInterruptInit+0x90>
     586:	08 95       	ret
			case EXTI_LOW_LEVEL:
			CLEAR_BIT(MCUCR_REGISTER,EXTI_ISC10_BIT);
     588:	85 b7       	in	r24, 0x35	; 53
     58a:	8b 7f       	andi	r24, 0xFB	; 251
     58c:	85 bf       	out	0x35, r24	; 53
			CLEAR_BIT(MCUCR_REGISTER,EXTI_ISC11_BIT);
     58e:	85 b7       	in	r24, 0x35	; 53
     590:	87 7f       	andi	r24, 0xF7	; 247
     592:	85 bf       	out	0x35, r24	; 53
			break;
     594:	08 95       	ret
			case EXTI_ANY_LOGICAL_CHANGE:
			SET_BIT  (MCUCR_REGISTER,EXTI_ISC10_BIT);
     596:	85 b7       	in	r24, 0x35	; 53
     598:	84 60       	ori	r24, 0x04	; 4
     59a:	85 bf       	out	0x35, r24	; 53
			CLEAR_BIT(MCUCR_REGISTER,EXTI_ISC11_BIT);
     59c:	85 b7       	in	r24, 0x35	; 53
     59e:	87 7f       	andi	r24, 0xF7	; 247
     5a0:	85 bf       	out	0x35, r24	; 53
			break;
     5a2:	08 95       	ret
			case EXTI_FALLING_EDGE:
			CLEAR_BIT(MCUCR_REGISTER,EXTI_ISC10_BIT);
     5a4:	85 b7       	in	r24, 0x35	; 53
     5a6:	8b 7f       	andi	r24, 0xFB	; 251
     5a8:	85 bf       	out	0x35, r24	; 53
			SET_BIT  (MCUCR_REGISTER,EXTI_ISC11_BIT);
     5aa:	85 b7       	in	r24, 0x35	; 53
     5ac:	88 60       	ori	r24, 0x08	; 8
     5ae:	85 bf       	out	0x35, r24	; 53
			break;
     5b0:	08 95       	ret
			case EXTI_RISING_EDGE:
			SET_BIT  (MCUCR_REGISTER,EXTI_ISC10_BIT);
     5b2:	85 b7       	in	r24, 0x35	; 53
     5b4:	84 60       	ori	r24, 0x04	; 4
     5b6:	85 bf       	out	0x35, r24	; 53
			SET_BIT  (MCUCR_REGISTER,EXTI_ISC11_BIT);
     5b8:	85 b7       	in	r24, 0x35	; 53
     5ba:	88 60       	ori	r24, 0x08	; 8
     5bc:	85 bf       	out	0x35, r24	; 53
			break;
     5be:	08 95       	ret
		}
		break;
		
		case EXTI_EXTI2:
		switch(copy_u8SenseContolType){
     5c0:	62 30       	cpi	r22, 0x02	; 2
     5c2:	19 f0       	breq	.+6      	; 0x5ca <EXTI_voidExternalInterruptInit+0xa8>
     5c4:	63 30       	cpi	r22, 0x03	; 3
     5c6:	29 f0       	breq	.+10     	; 0x5d2 <EXTI_voidExternalInterruptInit+0xb0>
     5c8:	08 95       	ret
			case EXTI_FALLING_EDGE:
			CLEAR_BIT(MCUCSR_REGISTER,EXTI_ISC2_BIT);
     5ca:	84 b7       	in	r24, 0x34	; 52
     5cc:	8f 7b       	andi	r24, 0xBF	; 191
     5ce:	84 bf       	out	0x34, r24	; 52
			break;
     5d0:	08 95       	ret
			case EXTI_RISING_EDGE:
			SET_BIT  (MCUCSR_REGISTER,EXTI_ISC2_BIT);
     5d2:	84 b7       	in	r24, 0x34	; 52
     5d4:	80 64       	ori	r24, 0x40	; 64
     5d6:	84 bf       	out	0x34, r24	; 52
     5d8:	08 95       	ret

000005da <EXTI_voidExternalInterruptEnable>:
		}
		break;
	}
}
void EXTI_voidExternalInterruptEnable(u8 copy_u8ExtiId){
	switch(copy_u8ExtiId){
     5da:	81 30       	cpi	r24, 0x01	; 1
     5dc:	41 f0       	breq	.+16     	; 0x5ee <EXTI_voidExternalInterruptEnable+0x14>
     5de:	18 f0       	brcs	.+6      	; 0x5e6 <EXTI_voidExternalInterruptEnable+0xc>
     5e0:	82 30       	cpi	r24, 0x02	; 2
     5e2:	49 f0       	breq	.+18     	; 0x5f6 <EXTI_voidExternalInterruptEnable+0x1c>
     5e4:	08 95       	ret
		case EXTI_EXTI0:
		SET_BIT(GICR_REGISTER,EXTI_INT0_BIT);
     5e6:	8b b7       	in	r24, 0x3b	; 59
     5e8:	80 64       	ori	r24, 0x40	; 64
     5ea:	8b bf       	out	0x3b, r24	; 59
		break;
     5ec:	08 95       	ret
		case EXTI_EXTI1:
		SET_BIT(GICR_REGISTER,EXTI_INT1_BIT);
     5ee:	8b b7       	in	r24, 0x3b	; 59
     5f0:	80 68       	ori	r24, 0x80	; 128
     5f2:	8b bf       	out	0x3b, r24	; 59
		break;
     5f4:	08 95       	ret
		case EXTI_EXTI2:
		SET_BIT(GICR_REGISTER,EXTI_INT2_BIT);
     5f6:	8b b7       	in	r24, 0x3b	; 59
     5f8:	80 62       	ori	r24, 0x20	; 32
     5fa:	8b bf       	out	0x3b, r24	; 59
     5fc:	08 95       	ret

000005fe <GI_voidEnableGeneralInterrupt>:
#include "GI_interface.h"
#include "GI_registers.h"


void GI_voidEnableGeneralInterrupt (void){
	SET_BIT(SREG_REGISTER,GI_I_BIT);
     5fe:	8f b7       	in	r24, 0x3f	; 63
     600:	80 68       	ori	r24, 0x80	; 128
     602:	8f bf       	out	0x3f, r24	; 63
     604:	08 95       	ret

00000606 <I2C_voidMasterInit>:

	//get the data from the data register
	*copy_pu8Data = TWDR_REG;

	//disable ACK pulse generation
	CLEAR_BIT  (TWCR_REG,TWEA_BIT);
     606:	81 b1       	in	r24, 0x01	; 1
     608:	8d 7f       	andi	r24, 0xFD	; 253
     60a:	81 b9       	out	0x01, r24	; 1
     60c:	81 b1       	in	r24, 0x01	; 1
     60e:	8e 7f       	andi	r24, 0xFE	; 254
     610:	81 b9       	out	0x01, r24	; 1
     612:	8c e0       	ldi	r24, 0x0C	; 12
     614:	80 b9       	out	0x00, r24	; 0
     616:	86 b7       	in	r24, 0x36	; 54
     618:	84 60       	ori	r24, 0x04	; 4
     61a:	86 bf       	out	0x36, r24	; 54
     61c:	86 b7       	in	r24, 0x36	; 54
     61e:	8e 7f       	andi	r24, 0xFE	; 254
     620:	86 bf       	out	0x36, r24	; 54
     622:	08 95       	ret

00000624 <I2C_voidSendStartCondition>:
     624:	86 b7       	in	r24, 0x36	; 54
     626:	80 62       	ori	r24, 0x20	; 32
     628:	86 bf       	out	0x36, r24	; 54
     62a:	86 b7       	in	r24, 0x36	; 54
     62c:	80 68       	ori	r24, 0x80	; 128
     62e:	86 bf       	out	0x36, r24	; 54
     630:	06 b6       	in	r0, 0x36	; 54
     632:	07 fe       	sbrs	r0, 7
     634:	fd cf       	rjmp	.-6      	; 0x630 <I2C_voidSendStartCondition+0xc>
     636:	81 b1       	in	r24, 0x01	; 1
     638:	88 7f       	andi	r24, 0xF8	; 248
     63a:	88 30       	cpi	r24, 0x08	; 8
     63c:	e1 f7       	brne	.-8      	; 0x636 <I2C_voidSendStartCondition+0x12>
     63e:	08 95       	ret

00000640 <I2C_voidSendRepeatedStartCondition>:
     640:	86 b7       	in	r24, 0x36	; 54
     642:	80 62       	ori	r24, 0x20	; 32
     644:	86 bf       	out	0x36, r24	; 54
     646:	86 b7       	in	r24, 0x36	; 54
     648:	80 68       	ori	r24, 0x80	; 128
     64a:	86 bf       	out	0x36, r24	; 54
     64c:	06 b6       	in	r0, 0x36	; 54
     64e:	07 fe       	sbrs	r0, 7
     650:	fd cf       	rjmp	.-6      	; 0x64c <I2C_voidSendRepeatedStartCondition+0xc>
     652:	81 b1       	in	r24, 0x01	; 1
     654:	88 7f       	andi	r24, 0xF8	; 248
     656:	80 31       	cpi	r24, 0x10	; 16
     658:	e1 f7       	brne	.-8      	; 0x652 <I2C_voidSendRepeatedStartCondition+0x12>
     65a:	08 95       	ret

0000065c <I2C_voidSendStopCondition>:
     65c:	86 b7       	in	r24, 0x36	; 54
     65e:	80 61       	ori	r24, 0x10	; 16
     660:	86 bf       	out	0x36, r24	; 54
     662:	86 b7       	in	r24, 0x36	; 54
     664:	80 68       	ori	r24, 0x80	; 128
     666:	86 bf       	out	0x36, r24	; 54
     668:	08 95       	ret

0000066a <I2C_voidSendSlaveAddressWithWrite>:
     66a:	88 23       	and	r24, r24
     66c:	94 f0       	brlt	.+36     	; 0x692 <I2C_voidSendSlaveAddressWithWrite+0x28>
     66e:	88 0f       	add	r24, r24
     670:	83 b9       	out	0x03, r24	; 3
     672:	83 b1       	in	r24, 0x03	; 3
     674:	8e 7f       	andi	r24, 0xFE	; 254
     676:	83 b9       	out	0x03, r24	; 3
     678:	86 b7       	in	r24, 0x36	; 54
     67a:	8f 7d       	andi	r24, 0xDF	; 223
     67c:	86 bf       	out	0x36, r24	; 54
     67e:	86 b7       	in	r24, 0x36	; 54
     680:	80 68       	ori	r24, 0x80	; 128
     682:	86 bf       	out	0x36, r24	; 54
     684:	06 b6       	in	r0, 0x36	; 54
     686:	07 fe       	sbrs	r0, 7
     688:	fd cf       	rjmp	.-6      	; 0x684 <I2C_voidSendSlaveAddressWithWrite+0x1a>
     68a:	81 b1       	in	r24, 0x01	; 1
     68c:	88 7f       	andi	r24, 0xF8	; 248
     68e:	88 31       	cpi	r24, 0x18	; 24
     690:	e1 f7       	brne	.-8      	; 0x68a <I2C_voidSendSlaveAddressWithWrite+0x20>
     692:	08 95       	ret

00000694 <I2C_voidSendSlaveAddressWithRead>:
     694:	88 23       	and	r24, r24
     696:	94 f0       	brlt	.+36     	; 0x6bc <I2C_voidSendSlaveAddressWithRead+0x28>
     698:	88 0f       	add	r24, r24
     69a:	83 b9       	out	0x03, r24	; 3
     69c:	83 b1       	in	r24, 0x03	; 3
     69e:	81 60       	ori	r24, 0x01	; 1
     6a0:	83 b9       	out	0x03, r24	; 3
     6a2:	86 b7       	in	r24, 0x36	; 54
     6a4:	8f 7d       	andi	r24, 0xDF	; 223
     6a6:	86 bf       	out	0x36, r24	; 54
     6a8:	86 b7       	in	r24, 0x36	; 54
     6aa:	80 68       	ori	r24, 0x80	; 128
     6ac:	86 bf       	out	0x36, r24	; 54
     6ae:	06 b6       	in	r0, 0x36	; 54
     6b0:	07 fe       	sbrs	r0, 7
     6b2:	fd cf       	rjmp	.-6      	; 0x6ae <I2C_voidSendSlaveAddressWithRead+0x1a>
     6b4:	81 b1       	in	r24, 0x01	; 1
     6b6:	88 7f       	andi	r24, 0xF8	; 248
     6b8:	80 34       	cpi	r24, 0x40	; 64
     6ba:	e1 f7       	brne	.-8      	; 0x6b4 <I2C_voidSendSlaveAddressWithRead+0x20>
     6bc:	08 95       	ret

000006be <I2C_voidMasterSendDataByte>:
     6be:	83 b9       	out	0x03, r24	; 3
     6c0:	86 b7       	in	r24, 0x36	; 54
     6c2:	80 68       	ori	r24, 0x80	; 128
     6c4:	86 bf       	out	0x36, r24	; 54
     6c6:	06 b6       	in	r0, 0x36	; 54
     6c8:	07 fe       	sbrs	r0, 7
     6ca:	fd cf       	rjmp	.-6      	; 0x6c6 <I2C_voidMasterSendDataByte+0x8>
     6cc:	81 b1       	in	r24, 0x01	; 1
     6ce:	88 7f       	andi	r24, 0xF8	; 248
     6d0:	88 32       	cpi	r24, 0x28	; 40
     6d2:	e1 f7       	brne	.-8      	; 0x6cc <I2C_voidMasterSendDataByte+0xe>
     6d4:	08 95       	ret

000006d6 <I2C_voidMasterReceiveDataByteWithoutACK>:
}
void I2C_voidMasterReceiveDataByteWithoutACK(u8* copy_pu8Data){
     6d6:	fc 01       	movw	r30, r24
	//clearing TWI flag
	SET_BIT(TWCR_REG,TWINT_BIT);
     6d8:	96 b7       	in	r25, 0x36	; 54
     6da:	90 68       	ori	r25, 0x80	; 128
     6dc:	96 bf       	out	0x36, r25	; 54

	//waiting for the data to be received
	while(GET_BIT(TWCR_REG,TWINT_BIT) == 0);
     6de:	06 b6       	in	r0, 0x36	; 54
     6e0:	07 fe       	sbrs	r0, 7
     6e2:	fd cf       	rjmp	.-6      	; 0x6de <I2C_voidMasterReceiveDataByteWithoutACK+0x8>

	//waiting for the right status code to be generated
	while(I2C_STATUS_CODE_VALUE != I2C_STATUS_CODE_BYTE_DATA_RECEIVED_WITHOUT_ACK);
     6e4:	91 b1       	in	r25, 0x01	; 1
     6e6:	98 7f       	andi	r25, 0xF8	; 248
     6e8:	98 35       	cpi	r25, 0x58	; 88
     6ea:	e1 f7       	brne	.-8      	; 0x6e4 <I2C_voidMasterReceiveDataByteWithoutACK+0xe>

	//get the data from the data register
	*copy_pu8Data = TWDR_REG;
     6ec:	83 b1       	in	r24, 0x03	; 3
     6ee:	80 83       	st	Z, r24
     6f0:	08 95       	ret

000006f2 <KEYPAD_voidInit>:
#include "keyPad_interface.h"
#include "keyPad_config.h"

void KEYPAD_voidInit(void){
	//initializing rows
	DIO_voidSetPinDirection(KEYPAD_ROW0_PORT,KEYPAD_ROW0_PIN,DIO_INPUT);
     6f2:	40 e0       	ldi	r20, 0x00	; 0
     6f4:	64 e0       	ldi	r22, 0x04	; 4
     6f6:	81 e0       	ldi	r24, 0x01	; 1
     6f8:	0e 94 3d 01 	call	0x27a	; 0x27a <DIO_voidSetPinDirection>
	DIO_voidSetPinDirection(KEYPAD_ROW1_PORT,KEYPAD_ROW1_PIN,DIO_INPUT);
     6fc:	40 e0       	ldi	r20, 0x00	; 0
     6fe:	65 e0       	ldi	r22, 0x05	; 5
     700:	81 e0       	ldi	r24, 0x01	; 1
     702:	0e 94 3d 01 	call	0x27a	; 0x27a <DIO_voidSetPinDirection>
	DIO_voidSetPinDirection(KEYPAD_ROW2_PORT,KEYPAD_ROW2_PIN,DIO_INPUT);
     706:	40 e0       	ldi	r20, 0x00	; 0
     708:	66 e0       	ldi	r22, 0x06	; 6
     70a:	81 e0       	ldi	r24, 0x01	; 1
     70c:	0e 94 3d 01 	call	0x27a	; 0x27a <DIO_voidSetPinDirection>
	DIO_voidSetPinDirection(KEYPAD_ROW3_PORT,KEYPAD_ROW3_PIN,DIO_INPUT);
     710:	40 e0       	ldi	r20, 0x00	; 0
     712:	67 e0       	ldi	r22, 0x07	; 7
     714:	81 e0       	ldi	r24, 0x01	; 1
     716:	0e 94 3d 01 	call	0x27a	; 0x27a <DIO_voidSetPinDirection>
	//activating internal pull-up resistor for rows
	DIO_voidSetPinValue(KEYPAD_ROW0_PORT,KEYPAD_ROW0_PIN,DIO_HIGH);
     71a:	41 e0       	ldi	r20, 0x01	; 1
     71c:	64 e0       	ldi	r22, 0x04	; 4
     71e:	81 e0       	ldi	r24, 0x01	; 1
     720:	0e 94 aa 01 	call	0x354	; 0x354 <DIO_voidSetPinValue>
	DIO_voidSetPinValue(KEYPAD_ROW1_PORT,KEYPAD_ROW1_PIN,DIO_HIGH);
     724:	41 e0       	ldi	r20, 0x01	; 1
     726:	65 e0       	ldi	r22, 0x05	; 5
     728:	81 e0       	ldi	r24, 0x01	; 1
     72a:	0e 94 aa 01 	call	0x354	; 0x354 <DIO_voidSetPinValue>
	DIO_voidSetPinValue(KEYPAD_ROW2_PORT,KEYPAD_ROW2_PIN,DIO_HIGH);
     72e:	41 e0       	ldi	r20, 0x01	; 1
     730:	66 e0       	ldi	r22, 0x06	; 6
     732:	81 e0       	ldi	r24, 0x01	; 1
     734:	0e 94 aa 01 	call	0x354	; 0x354 <DIO_voidSetPinValue>
	DIO_voidSetPinValue(KEYPAD_ROW3_PORT,KEYPAD_ROW3_PIN,DIO_HIGH);
     738:	41 e0       	ldi	r20, 0x01	; 1
     73a:	67 e0       	ldi	r22, 0x07	; 7
     73c:	81 e0       	ldi	r24, 0x01	; 1
     73e:	0e 94 aa 01 	call	0x354	; 0x354 <DIO_voidSetPinValue>
	//initializing columns
	DIO_voidSetPinDirection(KEYPAD_COLUMN0_PORT,KEYPAD_COLUMN0_PIN,DIO_OUTPUT);
     742:	41 e0       	ldi	r20, 0x01	; 1
     744:	61 e0       	ldi	r22, 0x01	; 1
     746:	81 e0       	ldi	r24, 0x01	; 1
     748:	0e 94 3d 01 	call	0x27a	; 0x27a <DIO_voidSetPinDirection>
	DIO_voidSetPinDirection(KEYPAD_COLUMN1_PORT,KEYPAD_COLUMN1_PIN,DIO_OUTPUT);
     74c:	41 e0       	ldi	r20, 0x01	; 1
     74e:	62 e0       	ldi	r22, 0x02	; 2
     750:	81 e0       	ldi	r24, 0x01	; 1
     752:	0e 94 3d 01 	call	0x27a	; 0x27a <DIO_voidSetPinDirection>
	DIO_voidSetPinDirection(KEYPAD_COLUMN2_PORT,KEYPAD_COLUMN2_PIN,DIO_OUTPUT);
     756:	41 e0       	ldi	r20, 0x01	; 1
     758:	63 e0       	ldi	r22, 0x03	; 3
     75a:	81 e0       	ldi	r24, 0x01	; 1
     75c:	0e 94 3d 01 	call	0x27a	; 0x27a <DIO_voidSetPinDirection>
	DIO_voidSetPinValue(KEYPAD_COLUMN0_PORT,KEYPAD_COLUMN0_PIN,DIO_HIGH);
     760:	41 e0       	ldi	r20, 0x01	; 1
     762:	61 e0       	ldi	r22, 0x01	; 1
     764:	81 e0       	ldi	r24, 0x01	; 1
     766:	0e 94 aa 01 	call	0x354	; 0x354 <DIO_voidSetPinValue>
	DIO_voidSetPinValue(KEYPAD_COLUMN1_PORT,KEYPAD_COLUMN1_PIN,DIO_HIGH);
     76a:	41 e0       	ldi	r20, 0x01	; 1
     76c:	62 e0       	ldi	r22, 0x02	; 2
     76e:	81 e0       	ldi	r24, 0x01	; 1
     770:	0e 94 aa 01 	call	0x354	; 0x354 <DIO_voidSetPinValue>
	DIO_voidSetPinValue(KEYPAD_COLUMN2_PORT,KEYPAD_COLUMN2_PIN,DIO_HIGH);
     774:	41 e0       	ldi	r20, 0x01	; 1
     776:	63 e0       	ldi	r22, 0x03	; 3
     778:	81 e0       	ldi	r24, 0x01	; 1
     77a:	0e 94 aa 01 	call	0x354	; 0x354 <DIO_voidSetPinValue>
     77e:	08 95       	ret

00000780 <KEYPAD_voidGetPressedKey>:
}


void KEYPAD_voidGetPressedKey(u8* copy_pu8pressedKey){
     780:	6f 92       	push	r6
     782:	7f 92       	push	r7
     784:	8f 92       	push	r8
     786:	9f 92       	push	r9
     788:	af 92       	push	r10
     78a:	bf 92       	push	r11
     78c:	cf 92       	push	r12
     78e:	df 92       	push	r13
     790:	ef 92       	push	r14
     792:	ff 92       	push	r15
     794:	0f 93       	push	r16
     796:	1f 93       	push	r17
     798:	cf 93       	push	r28
     79a:	df 93       	push	r29
     79c:	cd b7       	in	r28, 0x3d	; 61
     79e:	de b7       	in	r29, 0x3e	; 62
     7a0:	6b 97       	sbiw	r28, 0x1b	; 27
     7a2:	0f b6       	in	r0, 0x3f	; 63
     7a4:	f8 94       	cli
     7a6:	de bf       	out	0x3e, r29	; 62
     7a8:	0f be       	out	0x3f, r0	; 63
     7aa:	cd bf       	out	0x3d, r28	; 61
     7ac:	5c 01       	movw	r10, r24
	//arrays for ports and pins to make iterations easier
	u8 local_u8ColumnPorts[] = {KEYPAD_COLUMN0_PORT,KEYPAD_COLUMN1_PORT,KEYPAD_COLUMN2_PORT};
     7ae:	81 e0       	ldi	r24, 0x01	; 1
     7b0:	89 83       	std	Y+1, r24	; 0x01
     7b2:	8a 83       	std	Y+2, r24	; 0x02
     7b4:	8b 83       	std	Y+3, r24	; 0x03
	u8 local_u8ColumnPins [] = {KEYPAD_COLUMN0_PIN,KEYPAD_COLUMN1_PIN,KEYPAD_COLUMN2_PIN};
     7b6:	8c 83       	std	Y+4, r24	; 0x04
     7b8:	92 e0       	ldi	r25, 0x02	; 2
     7ba:	9d 83       	std	Y+5, r25	; 0x05
     7bc:	93 e0       	ldi	r25, 0x03	; 3
     7be:	9e 83       	std	Y+6, r25	; 0x06
	u8 local_u8RowPorts   [] = {KEYPAD_ROW0_PORT,KEYPAD_ROW1_PORT,KEYPAD_ROW2_PORT,KEYPAD_ROW3_PORT};
     7c0:	8f 83       	std	Y+7, r24	; 0x07
     7c2:	88 87       	std	Y+8, r24	; 0x08
     7c4:	89 87       	std	Y+9, r24	; 0x09
     7c6:	8a 87       	std	Y+10, r24	; 0x0a
	u8 local_u8RowPins    [] = {KEYPAD_ROW0_PIN,KEYPAD_ROW1_PIN,KEYPAD_ROW2_PIN,KEYPAD_ROW3_PIN};
     7c8:	84 e0       	ldi	r24, 0x04	; 4
     7ca:	8b 87       	std	Y+11, r24	; 0x0b
     7cc:	85 e0       	ldi	r24, 0x05	; 5
     7ce:	8c 87       	std	Y+12, r24	; 0x0c
     7d0:	86 e0       	ldi	r24, 0x06	; 6
     7d2:	8d 87       	std	Y+13, r24	; 0x0d
     7d4:	87 e0       	ldi	r24, 0x07	; 7
     7d6:	8e 87       	std	Y+14, r24	; 0x0e
	
	
	u8 local_u8KeypadKeys[4][3] = KEYPAD_KEYS;  
     7d8:	8c e0       	ldi	r24, 0x0C	; 12
     7da:	e0 e6       	ldi	r30, 0x60	; 96
     7dc:	f0 e0       	ldi	r31, 0x00	; 0
     7de:	de 01       	movw	r26, r28
     7e0:	1f 96       	adiw	r26, 0x0f	; 15
     7e2:	01 90       	ld	r0, Z+
     7e4:	0d 92       	st	X+, r0
     7e6:	8a 95       	dec	r24
     7e8:	e1 f7       	brne	.-8      	; 0x7e2 <KEYPAD_voidGetPressedKey+0x62>
	u8 local_u8PinValue;
	for(u8 local_u8ColumnsCounter = 0;local_u8ColumnsCounter<3;++local_u8ColumnsCounter){
     7ea:	81 2c       	mov	r8, r1
     7ec:	57 c0       	rjmp	.+174    	; 0x89c <__stack+0x3d>
		DIO_voidSetPinValue(local_u8ColumnPorts[local_u8ColumnsCounter],local_u8ColumnPins[local_u8ColumnsCounter],DIO_LOW);
     7ee:	c8 2c       	mov	r12, r8
     7f0:	d1 2c       	mov	r13, r1
     7f2:	e4 e0       	ldi	r30, 0x04	; 4
     7f4:	f0 e0       	ldi	r31, 0x00	; 0
     7f6:	ec 0f       	add	r30, r28
     7f8:	fd 1f       	adc	r31, r29
     7fa:	ec 0d       	add	r30, r12
     7fc:	fd 1d       	adc	r31, r13
     7fe:	60 80       	ld	r6, Z
     800:	e1 e0       	ldi	r30, 0x01	; 1
     802:	f0 e0       	ldi	r31, 0x00	; 0
     804:	ec 0f       	add	r30, r28
     806:	fd 1f       	adc	r31, r29
     808:	ec 0d       	add	r30, r12
     80a:	fd 1d       	adc	r31, r13
     80c:	70 80       	ld	r7, Z
     80e:	40 e0       	ldi	r20, 0x00	; 0
     810:	66 2d       	mov	r22, r6
     812:	87 2d       	mov	r24, r7
     814:	0e 94 aa 01 	call	0x354	; 0x354 <DIO_voidSetPinValue>
		
		for(u8 local_u8RowsCounter = 0;local_u8RowsCounter<4;++local_u8RowsCounter){
     818:	10 e0       	ldi	r17, 0x00	; 0
     81a:	38 c0       	rjmp	.+112    	; 0x88c <__stack+0x2d>
			DIO_voidGetPinValue(local_u8RowPorts[local_u8RowsCounter],local_u8RowPins[local_u8RowsCounter],&local_u8PinValue);
     81c:	e1 2e       	mov	r14, r17
     81e:	f1 2c       	mov	r15, r1
     820:	eb e0       	ldi	r30, 0x0B	; 11
     822:	f0 e0       	ldi	r31, 0x00	; 0
     824:	ec 0f       	add	r30, r28
     826:	fd 1f       	adc	r31, r29
     828:	ee 0d       	add	r30, r14
     82a:	ff 1d       	adc	r31, r15
     82c:	00 81       	ld	r16, Z
     82e:	e7 e0       	ldi	r30, 0x07	; 7
     830:	f0 e0       	ldi	r31, 0x00	; 0
     832:	ec 0f       	add	r30, r28
     834:	fd 1f       	adc	r31, r29
     836:	ee 0d       	add	r30, r14
     838:	ff 1d       	adc	r31, r15
     83a:	90 80       	ld	r9, Z
     83c:	ae 01       	movw	r20, r28
     83e:	45 5e       	subi	r20, 0xE5	; 229
     840:	5f 4f       	sbci	r21, 0xFF	; 255
     842:	60 2f       	mov	r22, r16
     844:	89 2d       	mov	r24, r9
     846:	0e 94 17 02 	call	0x42e	; 0x42e <DIO_voidGetPinValue>
			//if a key is pressed
			if(local_u8PinValue == 0){
     84a:	8b 8d       	ldd	r24, Y+27	; 0x1b
     84c:	81 11       	cpse	r24, r1
     84e:	1d c0       	rjmp	.+58     	; 0x88a <__stack+0x2b>
     850:	07 c0       	rjmp	.+14     	; 0x860 <__stack+0x1>
				//while key is holden 
				while(local_u8PinValue == 0){
					DIO_voidGetPinValue(local_u8RowPorts[local_u8RowsCounter],local_u8RowPins[local_u8RowsCounter],&local_u8PinValue);		
     852:	ae 01       	movw	r20, r28
     854:	45 5e       	subi	r20, 0xE5	; 229
     856:	5f 4f       	sbci	r21, 0xFF	; 255
     858:	60 2f       	mov	r22, r16
     85a:	89 2d       	mov	r24, r9
     85c:	0e 94 17 02 	call	0x42e	; 0x42e <DIO_voidGetPinValue>
		for(u8 local_u8RowsCounter = 0;local_u8RowsCounter<4;++local_u8RowsCounter){
			DIO_voidGetPinValue(local_u8RowPorts[local_u8RowsCounter],local_u8RowPins[local_u8RowsCounter],&local_u8PinValue);
			//if a key is pressed
			if(local_u8PinValue == 0){
				//while key is holden 
				while(local_u8PinValue == 0){
     860:	8b 8d       	ldd	r24, Y+27	; 0x1b
     862:	88 23       	and	r24, r24
     864:	b1 f3       	breq	.-20     	; 0x852 <__DATA_REGION_LENGTH__+0x52>
					DIO_voidGetPinValue(local_u8RowPorts[local_u8RowsCounter],local_u8RowPins[local_u8RowsCounter],&local_u8PinValue);		
				}
				//return corresponding character
				*copy_pu8pressedKey = local_u8KeypadKeys[local_u8RowsCounter][local_u8ColumnsCounter];
     866:	c7 01       	movw	r24, r14
     868:	88 0f       	add	r24, r24
     86a:	99 1f       	adc	r25, r25
     86c:	e8 0e       	add	r14, r24
     86e:	f9 1e       	adc	r15, r25
     870:	81 e0       	ldi	r24, 0x01	; 1
     872:	90 e0       	ldi	r25, 0x00	; 0
     874:	8c 0f       	add	r24, r28
     876:	9d 1f       	adc	r25, r29
     878:	e8 0e       	add	r14, r24
     87a:	f9 1e       	adc	r15, r25
     87c:	f7 01       	movw	r30, r14
     87e:	ec 0d       	add	r30, r12
     880:	fd 1d       	adc	r31, r13
     882:	86 85       	ldd	r24, Z+14	; 0x0e
     884:	f5 01       	movw	r30, r10
     886:	80 83       	st	Z, r24
     888:	0d c0       	rjmp	.+26     	; 0x8a4 <__stack+0x45>
	u8 local_u8KeypadKeys[4][3] = KEYPAD_KEYS;  
	u8 local_u8PinValue;
	for(u8 local_u8ColumnsCounter = 0;local_u8ColumnsCounter<3;++local_u8ColumnsCounter){
		DIO_voidSetPinValue(local_u8ColumnPorts[local_u8ColumnsCounter],local_u8ColumnPins[local_u8ColumnsCounter],DIO_LOW);
		
		for(u8 local_u8RowsCounter = 0;local_u8RowsCounter<4;++local_u8RowsCounter){
     88a:	1f 5f       	subi	r17, 0xFF	; 255
     88c:	14 30       	cpi	r17, 0x04	; 4
     88e:	30 f2       	brcs	.-116    	; 0x81c <__DATA_REGION_LENGTH__+0x1c>
				//terminate the function
				return;
			}
			
		}
		DIO_voidSetPinValue(local_u8ColumnPorts[local_u8ColumnsCounter],local_u8ColumnPins[local_u8ColumnsCounter],DIO_HIGH);
     890:	41 e0       	ldi	r20, 0x01	; 1
     892:	66 2d       	mov	r22, r6
     894:	87 2d       	mov	r24, r7
     896:	0e 94 aa 01 	call	0x354	; 0x354 <DIO_voidSetPinValue>
	u8 local_u8RowPins    [] = {KEYPAD_ROW0_PIN,KEYPAD_ROW1_PIN,KEYPAD_ROW2_PIN,KEYPAD_ROW3_PIN};
	
	
	u8 local_u8KeypadKeys[4][3] = KEYPAD_KEYS;  
	u8 local_u8PinValue;
	for(u8 local_u8ColumnsCounter = 0;local_u8ColumnsCounter<3;++local_u8ColumnsCounter){
     89a:	83 94       	inc	r8
     89c:	f2 e0       	ldi	r31, 0x02	; 2
     89e:	f8 15       	cp	r31, r8
     8a0:	08 f0       	brcs	.+2      	; 0x8a4 <__stack+0x45>
     8a2:	a5 cf       	rjmp	.-182    	; 0x7ee <KEYPAD_voidGetPressedKey+0x6e>
			
		}
		DIO_voidSetPinValue(local_u8ColumnPorts[local_u8ColumnsCounter],local_u8ColumnPins[local_u8ColumnsCounter],DIO_HIGH);
	}
	
}
     8a4:	6b 96       	adiw	r28, 0x1b	; 27
     8a6:	0f b6       	in	r0, 0x3f	; 63
     8a8:	f8 94       	cli
     8aa:	de bf       	out	0x3e, r29	; 62
     8ac:	0f be       	out	0x3f, r0	; 63
     8ae:	cd bf       	out	0x3d, r28	; 61
     8b0:	df 91       	pop	r29
     8b2:	cf 91       	pop	r28
     8b4:	1f 91       	pop	r17
     8b6:	0f 91       	pop	r16
     8b8:	ff 90       	pop	r15
     8ba:	ef 90       	pop	r14
     8bc:	df 90       	pop	r13
     8be:	cf 90       	pop	r12
     8c0:	bf 90       	pop	r11
     8c2:	af 90       	pop	r10
     8c4:	9f 90       	pop	r9
     8c6:	8f 90       	pop	r8
     8c8:	7f 90       	pop	r7
     8ca:	6f 90       	pop	r6
     8cc:	08 95       	ret

000008ce <PRIV_voidEnable>:
}
void LCD_voidShiftDisplayLeft(u8 copy_u8NumberOfShits){
	for(u8 i = 0;i<copy_u8NumberOfShits;++i){
		PRIV_voidSendCommand(0b00011000);
	}
}
     8ce:	41 e0       	ldi	r20, 0x01	; 1
     8d0:	63 e0       	ldi	r22, 0x03	; 3
     8d2:	80 e0       	ldi	r24, 0x00	; 0
     8d4:	0e 94 aa 01 	call	0x354	; 0x354 <DIO_voidSetPinValue>
     8d8:	8f e9       	ldi	r24, 0x9F	; 159
     8da:	9f e0       	ldi	r25, 0x0F	; 15
     8dc:	01 97       	sbiw	r24, 0x01	; 1
     8de:	f1 f7       	brne	.-4      	; 0x8dc <PRIV_voidEnable+0xe>
     8e0:	00 c0       	rjmp	.+0      	; 0x8e2 <PRIV_voidEnable+0x14>
     8e2:	00 00       	nop
     8e4:	40 e0       	ldi	r20, 0x00	; 0
     8e6:	63 e0       	ldi	r22, 0x03	; 3
     8e8:	80 e0       	ldi	r24, 0x00	; 0
     8ea:	0e 94 aa 01 	call	0x354	; 0x354 <DIO_voidSetPinValue>
     8ee:	08 95       	ret

000008f0 <PRIV_voidSendHalfData>:
     8f0:	cf 93       	push	r28
     8f2:	c8 2f       	mov	r28, r24
     8f4:	48 2f       	mov	r20, r24
     8f6:	41 70       	andi	r20, 0x01	; 1
     8f8:	64 e0       	ldi	r22, 0x04	; 4
     8fa:	80 e0       	ldi	r24, 0x00	; 0
     8fc:	0e 94 aa 01 	call	0x354	; 0x354 <DIO_voidSetPinValue>
     900:	c1 fb       	bst	r28, 1
     902:	44 27       	eor	r20, r20
     904:	40 f9       	bld	r20, 0
     906:	65 e0       	ldi	r22, 0x05	; 5
     908:	80 e0       	ldi	r24, 0x00	; 0
     90a:	0e 94 aa 01 	call	0x354	; 0x354 <DIO_voidSetPinValue>
     90e:	c2 fb       	bst	r28, 2
     910:	44 27       	eor	r20, r20
     912:	40 f9       	bld	r20, 0
     914:	66 e0       	ldi	r22, 0x06	; 6
     916:	80 e0       	ldi	r24, 0x00	; 0
     918:	0e 94 aa 01 	call	0x354	; 0x354 <DIO_voidSetPinValue>
     91c:	c3 fb       	bst	r28, 3
     91e:	44 27       	eor	r20, r20
     920:	40 f9       	bld	r20, 0
     922:	67 e0       	ldi	r22, 0x07	; 7
     924:	80 e0       	ldi	r24, 0x00	; 0
     926:	0e 94 aa 01 	call	0x354	; 0x354 <DIO_voidSetPinValue>
     92a:	0e 94 67 04 	call	0x8ce	; 0x8ce <PRIV_voidEnable>
     92e:	cf 91       	pop	r28
     930:	08 95       	ret

00000932 <PRIV_voidSendCommand>:
     932:	cf 93       	push	r28
     934:	c8 2f       	mov	r28, r24
     936:	40 e0       	ldi	r20, 0x00	; 0
     938:	61 e0       	ldi	r22, 0x01	; 1
     93a:	80 e0       	ldi	r24, 0x00	; 0
     93c:	0e 94 aa 01 	call	0x354	; 0x354 <DIO_voidSetPinValue>
     940:	8c 2f       	mov	r24, r28
     942:	82 95       	swap	r24
     944:	8f 70       	andi	r24, 0x0F	; 15
     946:	0e 94 78 04 	call	0x8f0	; 0x8f0 <PRIV_voidSendHalfData>
     94a:	8c 2f       	mov	r24, r28
     94c:	0e 94 78 04 	call	0x8f0	; 0x8f0 <PRIV_voidSendHalfData>
     950:	cf 91       	pop	r28
     952:	08 95       	ret

00000954 <LCD_voidInit>:
     954:	41 e0       	ldi	r20, 0x01	; 1
     956:	64 e0       	ldi	r22, 0x04	; 4
     958:	80 e0       	ldi	r24, 0x00	; 0
     95a:	0e 94 3d 01 	call	0x27a	; 0x27a <DIO_voidSetPinDirection>
     95e:	41 e0       	ldi	r20, 0x01	; 1
     960:	65 e0       	ldi	r22, 0x05	; 5
     962:	80 e0       	ldi	r24, 0x00	; 0
     964:	0e 94 3d 01 	call	0x27a	; 0x27a <DIO_voidSetPinDirection>
     968:	41 e0       	ldi	r20, 0x01	; 1
     96a:	66 e0       	ldi	r22, 0x06	; 6
     96c:	80 e0       	ldi	r24, 0x00	; 0
     96e:	0e 94 3d 01 	call	0x27a	; 0x27a <DIO_voidSetPinDirection>
     972:	41 e0       	ldi	r20, 0x01	; 1
     974:	67 e0       	ldi	r22, 0x07	; 7
     976:	80 e0       	ldi	r24, 0x00	; 0
     978:	0e 94 3d 01 	call	0x27a	; 0x27a <DIO_voidSetPinDirection>
     97c:	41 e0       	ldi	r20, 0x01	; 1
     97e:	61 e0       	ldi	r22, 0x01	; 1
     980:	80 e0       	ldi	r24, 0x00	; 0
     982:	0e 94 3d 01 	call	0x27a	; 0x27a <DIO_voidSetPinDirection>
     986:	41 e0       	ldi	r20, 0x01	; 1
     988:	62 e0       	ldi	r22, 0x02	; 2
     98a:	80 e0       	ldi	r24, 0x00	; 0
     98c:	0e 94 3d 01 	call	0x27a	; 0x27a <DIO_voidSetPinDirection>
     990:	41 e0       	ldi	r20, 0x01	; 1
     992:	63 e0       	ldi	r22, 0x03	; 3
     994:	80 e0       	ldi	r24, 0x00	; 0
     996:	0e 94 3d 01 	call	0x27a	; 0x27a <DIO_voidSetPinDirection>
     99a:	40 e0       	ldi	r20, 0x00	; 0
     99c:	61 e0       	ldi	r22, 0x01	; 1
     99e:	80 e0       	ldi	r24, 0x00	; 0
     9a0:	0e 94 aa 01 	call	0x354	; 0x354 <DIO_voidSetPinValue>
     9a4:	40 e0       	ldi	r20, 0x00	; 0
     9a6:	62 e0       	ldi	r22, 0x02	; 2
     9a8:	80 e0       	ldi	r24, 0x00	; 0
     9aa:	0e 94 aa 01 	call	0x354	; 0x354 <DIO_voidSetPinValue>
     9ae:	2f ef       	ldi	r18, 0xFF	; 255
     9b0:	83 ef       	ldi	r24, 0xF3	; 243
     9b2:	91 e0       	ldi	r25, 0x01	; 1
     9b4:	21 50       	subi	r18, 0x01	; 1
     9b6:	80 40       	sbci	r24, 0x00	; 0
     9b8:	90 40       	sbci	r25, 0x00	; 0
     9ba:	e1 f7       	brne	.-8      	; 0x9b4 <LCD_voidInit+0x60>
     9bc:	00 c0       	rjmp	.+0      	; 0x9be <LCD_voidInit+0x6a>
     9be:	00 00       	nop
     9c0:	82 e2       	ldi	r24, 0x22	; 34
     9c2:	0e 94 99 04 	call	0x932	; 0x932 <PRIV_voidSendCommand>
     9c6:	88 e0       	ldi	r24, 0x08	; 8
     9c8:	0e 94 78 04 	call	0x8f0	; 0x8f0 <PRIV_voidSendHalfData>
     9cc:	87 ec       	ldi	r24, 0xC7	; 199
     9ce:	90 e0       	ldi	r25, 0x00	; 0
     9d0:	01 97       	sbiw	r24, 0x01	; 1
     9d2:	f1 f7       	brne	.-4      	; 0x9d0 <LCD_voidInit+0x7c>
     9d4:	00 c0       	rjmp	.+0      	; 0x9d6 <LCD_voidInit+0x82>
     9d6:	00 00       	nop
     9d8:	8c e0       	ldi	r24, 0x0C	; 12
     9da:	0e 94 99 04 	call	0x932	; 0x932 <PRIV_voidSendCommand>
     9de:	87 ec       	ldi	r24, 0xC7	; 199
     9e0:	90 e0       	ldi	r25, 0x00	; 0
     9e2:	01 97       	sbiw	r24, 0x01	; 1
     9e4:	f1 f7       	brne	.-4      	; 0x9e2 <LCD_voidInit+0x8e>
     9e6:	00 c0       	rjmp	.+0      	; 0x9e8 <LCD_voidInit+0x94>
     9e8:	00 00       	nop
     9ea:	81 e0       	ldi	r24, 0x01	; 1
     9ec:	0e 94 99 04 	call	0x932	; 0x932 <PRIV_voidSendCommand>
     9f0:	8f e3       	ldi	r24, 0x3F	; 63
     9f2:	9f e1       	ldi	r25, 0x1F	; 31
     9f4:	01 97       	sbiw	r24, 0x01	; 1
     9f6:	f1 f7       	brne	.-4      	; 0x9f4 <LCD_voidInit+0xa0>
     9f8:	00 c0       	rjmp	.+0      	; 0x9fa <LCD_voidInit+0xa6>
     9fa:	00 00       	nop
     9fc:	86 e0       	ldi	r24, 0x06	; 6
     9fe:	0e 94 99 04 	call	0x932	; 0x932 <PRIV_voidSendCommand>
     a02:	08 95       	ret

00000a04 <LCD_voidDisplayCharacter>:
     a04:	cf 93       	push	r28
     a06:	c8 2f       	mov	r28, r24
     a08:	41 e0       	ldi	r20, 0x01	; 1
     a0a:	61 e0       	ldi	r22, 0x01	; 1
     a0c:	80 e0       	ldi	r24, 0x00	; 0
     a0e:	0e 94 aa 01 	call	0x354	; 0x354 <DIO_voidSetPinValue>
     a12:	8c 2f       	mov	r24, r28
     a14:	82 95       	swap	r24
     a16:	8f 70       	andi	r24, 0x0F	; 15
     a18:	0e 94 78 04 	call	0x8f0	; 0x8f0 <PRIV_voidSendHalfData>
     a1c:	8c 2f       	mov	r24, r28
     a1e:	0e 94 78 04 	call	0x8f0	; 0x8f0 <PRIV_voidSendHalfData>
     a22:	cf 91       	pop	r28
     a24:	08 95       	ret

00000a26 <LCD_voidDisplayString>:
void LCD_voidDisplayString(const char copy_pu8string[]){
     a26:	0f 93       	push	r16
     a28:	1f 93       	push	r17
     a2a:	cf 93       	push	r28
     a2c:	8c 01       	movw	r16, r24
	u8 local_u8currentChar = copy_pu8string[0];
     a2e:	fc 01       	movw	r30, r24
     a30:	80 81       	ld	r24, Z
	u8 local_u8currentCharindex = 0;
     a32:	c0 e0       	ldi	r28, 0x00	; 0
	while(local_u8currentChar != '\0'){
     a34:	07 c0       	rjmp	.+14     	; 0xa44 <LCD_voidDisplayString+0x1e>
		LCD_voidDisplayCharacter(local_u8currentChar);
     a36:	0e 94 02 05 	call	0xa04	; 0xa04 <LCD_voidDisplayCharacter>
		++local_u8currentCharindex;
     a3a:	cf 5f       	subi	r28, 0xFF	; 255
		local_u8currentChar = copy_pu8string[local_u8currentCharindex];
     a3c:	f8 01       	movw	r30, r16
     a3e:	ec 0f       	add	r30, r28
     a40:	f1 1d       	adc	r31, r1
     a42:	80 81       	ld	r24, Z
	}
}
void LCD_voidDisplayString(const char copy_pu8string[]){
	u8 local_u8currentChar = copy_pu8string[0];
	u8 local_u8currentCharindex = 0;
	while(local_u8currentChar != '\0'){
     a44:	81 11       	cpse	r24, r1
     a46:	f7 cf       	rjmp	.-18     	; 0xa36 <LCD_voidDisplayString+0x10>
		LCD_voidDisplayCharacter(local_u8currentChar);
		++local_u8currentCharindex;
		local_u8currentChar = copy_pu8string[local_u8currentCharindex];
	}
}
     a48:	cf 91       	pop	r28
     a4a:	1f 91       	pop	r17
     a4c:	0f 91       	pop	r16
     a4e:	08 95       	ret

00000a50 <LCD_voidMoveToSecondLine>:
void LCD_voidMoveToSecondLine(void){
	PRIV_voidSendCommand(0b11000000);	
     a50:	80 ec       	ldi	r24, 0xC0	; 192
     a52:	0e 94 99 04 	call	0x932	; 0x932 <PRIV_voidSendCommand>
     a56:	08 95       	ret

00000a58 <LCD_voidClearDisplay>:
}
void LCD_voidClearDisplay(void){
	PRIV_voidSendCommand(0b0000001);
     a58:	81 e0       	ldi	r24, 0x01	; 1
     a5a:	0e 94 99 04 	call	0x932	; 0x932 <PRIV_voidSendCommand>
     a5e:	08 95       	ret

00000a60 <LCD_voidDisplayNumber>:
}
void LCD_voidDisplayNumber(u32 copy_u32Number){
     a60:	cf 92       	push	r12
     a62:	df 92       	push	r13
     a64:	ef 92       	push	r14
     a66:	ff 92       	push	r15
     a68:	0f 93       	push	r16
     a6a:	1f 93       	push	r17
     a6c:	8b 01       	movw	r16, r22
     a6e:	9c 01       	movw	r18, r24
	u32 local_u32ReservedNumber = 1;
	if(copy_u32Number == 0){
     a70:	67 2b       	or	r22, r23
     a72:	68 2b       	or	r22, r24
     a74:	69 2b       	or	r22, r25
     a76:	61 f5       	brne	.+88     	; 0xad0 <LCD_voidDisplayNumber+0x70>
		LCD_voidDisplayNumber('0');
     a78:	60 e3       	ldi	r22, 0x30	; 48
     a7a:	70 e0       	ldi	r23, 0x00	; 0
     a7c:	80 e0       	ldi	r24, 0x00	; 0
     a7e:	90 e0       	ldi	r25, 0x00	; 0
     a80:	0e 94 30 05 	call	0xa60	; 0xa60 <LCD_voidDisplayNumber>
     a84:	46 c0       	rjmp	.+140    	; 0xb12 <LCD_voidDisplayNumber+0xb2>
	}
	else{
		while(copy_u32Number != 0){
			local_u32ReservedNumber *= 10;
     a86:	dc 01       	movw	r26, r24
     a88:	cb 01       	movw	r24, r22
     a8a:	88 0f       	add	r24, r24
     a8c:	99 1f       	adc	r25, r25
     a8e:	aa 1f       	adc	r26, r26
     a90:	bb 1f       	adc	r27, r27
     a92:	6c 01       	movw	r12, r24
     a94:	7d 01       	movw	r14, r26
     a96:	cc 0c       	add	r12, r12
     a98:	dd 1c       	adc	r13, r13
     a9a:	ee 1c       	adc	r14, r14
     a9c:	ff 1c       	adc	r15, r15
     a9e:	cc 0c       	add	r12, r12
     aa0:	dd 1c       	adc	r13, r13
     aa2:	ee 1c       	adc	r14, r14
     aa4:	ff 1c       	adc	r15, r15
     aa6:	c8 0e       	add	r12, r24
     aa8:	d9 1e       	adc	r13, r25
     aaa:	ea 1e       	adc	r14, r26
     aac:	fb 1e       	adc	r15, r27
			local_u32ReservedNumber += copy_u32Number%10;
     aae:	c9 01       	movw	r24, r18
     ab0:	b8 01       	movw	r22, r16
     ab2:	2a e0       	ldi	r18, 0x0A	; 10
     ab4:	30 e0       	ldi	r19, 0x00	; 0
     ab6:	40 e0       	ldi	r20, 0x00	; 0
     ab8:	50 e0       	ldi	r21, 0x00	; 0
     aba:	0e 94 c2 0d 	call	0x1b84	; 0x1b84 <__udivmodsi4>
     abe:	6c 0d       	add	r22, r12
     ac0:	7d 1d       	adc	r23, r13
     ac2:	8e 1d       	adc	r24, r14
     ac4:	9f 1d       	adc	r25, r15
			copy_u32Number /= 10;
     ac6:	02 2f       	mov	r16, r18
     ac8:	13 2f       	mov	r17, r19
     aca:	24 2f       	mov	r18, r20
     acc:	35 2f       	mov	r19, r21
     ace:	04 c0       	rjmp	.+8      	; 0xad8 <LCD_voidDisplayNumber+0x78>
     ad0:	61 e0       	ldi	r22, 0x01	; 1
     ad2:	70 e0       	ldi	r23, 0x00	; 0
     ad4:	80 e0       	ldi	r24, 0x00	; 0
     ad6:	90 e0       	ldi	r25, 0x00	; 0
	u32 local_u32ReservedNumber = 1;
	if(copy_u32Number == 0){
		LCD_voidDisplayNumber('0');
	}
	else{
		while(copy_u32Number != 0){
     ad8:	01 15       	cp	r16, r1
     ada:	11 05       	cpc	r17, r1
     adc:	21 05       	cpc	r18, r1
     ade:	31 05       	cpc	r19, r1
     ae0:	91 f6       	brne	.-92     	; 0xa86 <LCD_voidDisplayNumber+0x26>
     ae2:	12 c0       	rjmp	.+36     	; 0xb08 <LCD_voidDisplayNumber+0xa8>
			local_u32ReservedNumber *= 10;
			local_u32ReservedNumber += copy_u32Number%10;
			copy_u32Number /= 10;
		}
		while(local_u32ReservedNumber != 1){
			LCD_voidDisplayCharacter((local_u32ReservedNumber%10)+'0');
     ae4:	2a e0       	ldi	r18, 0x0A	; 10
     ae6:	30 e0       	ldi	r19, 0x00	; 0
     ae8:	40 e0       	ldi	r20, 0x00	; 0
     aea:	50 e0       	ldi	r21, 0x00	; 0
     aec:	0e 94 c2 0d 	call	0x1b84	; 0x1b84 <__udivmodsi4>
     af0:	e2 2e       	mov	r14, r18
     af2:	f3 2e       	mov	r15, r19
     af4:	04 2f       	mov	r16, r20
     af6:	15 2f       	mov	r17, r21
     af8:	80 e3       	ldi	r24, 0x30	; 48
     afa:	86 0f       	add	r24, r22
     afc:	0e 94 02 05 	call	0xa04	; 0xa04 <LCD_voidDisplayCharacter>
			local_u32ReservedNumber /=10;
     b00:	6e 2d       	mov	r22, r14
     b02:	7f 2d       	mov	r23, r15
     b04:	80 2f       	mov	r24, r16
     b06:	91 2f       	mov	r25, r17
		while(copy_u32Number != 0){
			local_u32ReservedNumber *= 10;
			local_u32ReservedNumber += copy_u32Number%10;
			copy_u32Number /= 10;
		}
		while(local_u32ReservedNumber != 1){
     b08:	61 30       	cpi	r22, 0x01	; 1
     b0a:	71 05       	cpc	r23, r1
     b0c:	81 05       	cpc	r24, r1
     b0e:	91 05       	cpc	r25, r1
     b10:	49 f7       	brne	.-46     	; 0xae4 <LCD_voidDisplayNumber+0x84>
			LCD_voidDisplayCharacter((local_u32ReservedNumber%10)+'0');
			local_u32ReservedNumber /=10;
		}
		return;
	}
     b12:	1f 91       	pop	r17
     b14:	0f 91       	pop	r16
     b16:	ff 90       	pop	r15
     b18:	ef 90       	pop	r14
     b1a:	df 90       	pop	r13
     b1c:	cf 90       	pop	r12
     b1e:	08 95       	ret

00000b20 <main>:
#include "smart_home_system_interface.h"


int main(void)
{
	SmartHome_voidInitSystem();
     b20:	0e 94 7f 06 	call	0xcfe	; 0xcfe <SmartHome_voidInitSystem>
    while (1) 
    {
		SmartHome_voidTerminalLoginMainMenu();
     b24:	0e 94 b5 09 	call	0x136a	; 0x136a <SmartHome_voidTerminalLoginMainMenu>
     b28:	fd cf       	rjmp	.-6      	; 0xb24 <main+0x4>

00000b2a <PWM1_voidInit>:
#include "pwm1_registers.h"
#include "DIO_interface.h"

void PWM1_voidInit(){
	//setting non inverting mode and PWM output on pin OC1A
	CLEAR_BIT(TCCR1A_REGISTER,COM1A0_BIT);
     b2a:	8f b5       	in	r24, 0x2f	; 47
     b2c:	8f 7b       	andi	r24, 0xBF	; 191
     b2e:	8f bd       	out	0x2f, r24	; 47
	SET_BIT  (TCCR1A_REGISTER,COM1A1_BIT);
     b30:	8f b5       	in	r24, 0x2f	; 47
     b32:	80 68       	ori	r24, 0x80	; 128
     b34:	8f bd       	out	0x2f, r24	; 47
	//choosing fast PWM with top value of ICR1 (mode 14 in data sheet)
	CLEAR_BIT(TCCR1A_REGISTER,WGM10_BIT);
     b36:	8f b5       	in	r24, 0x2f	; 47
     b38:	8e 7f       	andi	r24, 0xFE	; 254
     b3a:	8f bd       	out	0x2f, r24	; 47
	SET_BIT  (TCCR1A_REGISTER,WGM11_BIT);
     b3c:	8f b5       	in	r24, 0x2f	; 47
     b3e:	82 60       	ori	r24, 0x02	; 2
     b40:	8f bd       	out	0x2f, r24	; 47
	SET_BIT  (TCCR1B_REGISTER,WGM12_BIT);
     b42:	8e b5       	in	r24, 0x2e	; 46
     b44:	88 60       	ori	r24, 0x08	; 8
     b46:	8e bd       	out	0x2e, r24	; 46
	SET_BIT  (TCCR1B_REGISTER,WGM13_BIT);
     b48:	8e b5       	in	r24, 0x2e	; 46
     b4a:	80 61       	ori	r24, 0x10	; 16
     b4c:	8e bd       	out	0x2e, r24	; 46
	//set OCR1A pin as output
	DIO_voidSetPinDirection(DIO_PORTD,DIO_PIN5,DIO_OUTPUT);
     b4e:	41 e0       	ldi	r20, 0x01	; 1
     b50:	65 e0       	ldi	r22, 0x05	; 5
     b52:	83 e0       	ldi	r24, 0x03	; 3
     b54:	0e 94 3d 01 	call	0x27a	; 0x27a <DIO_voidSetPinDirection>
     b58:	08 95       	ret

00000b5a <PWM1_voidStart>:
	
}
void PWM1_voidStart(f32 copy_f32DutycycleValue,u16 copy_u16PWMfrequency){
     b5a:	cf 92       	push	r12
     b5c:	df 92       	push	r13
     b5e:	ef 92       	push	r14
     b60:	ff 92       	push	r15
     b62:	6b 01       	movw	r12, r22
     b64:	7c 01       	movw	r14, r24
	//set frequency
	ICR1_REGISTER  = (PWM1_TIMER1_FREQUENCY/copy_u16PWMfrequency)-1;
     b66:	9a 01       	movw	r18, r20
     b68:	40 e0       	ldi	r20, 0x00	; 0
     b6a:	50 e0       	ldi	r21, 0x00	; 0
     b6c:	60 e9       	ldi	r22, 0x90	; 144
     b6e:	70 ed       	ldi	r23, 0xD0	; 208
     b70:	83 e0       	ldi	r24, 0x03	; 3
     b72:	90 e0       	ldi	r25, 0x00	; 0
     b74:	0e 94 c2 0d 	call	0x1b84	; 0x1b84 <__udivmodsi4>
     b78:	21 50       	subi	r18, 0x01	; 1
     b7a:	31 09       	sbc	r19, r1
     b7c:	37 bd       	out	0x27, r19	; 39
     b7e:	26 bd       	out	0x26, r18	; 38
	//set duty cycle
	OCR1A_REGISTER = (copy_f32DutycycleValue*(ICR1_REGISTER+1)/100)-1;
     b80:	66 b5       	in	r22, 0x26	; 38
     b82:	77 b5       	in	r23, 0x27	; 39
     b84:	6f 5f       	subi	r22, 0xFF	; 255
     b86:	7f 4f       	sbci	r23, 0xFF	; 255
     b88:	80 e0       	ldi	r24, 0x00	; 0
     b8a:	90 e0       	ldi	r25, 0x00	; 0
     b8c:	0e 94 b3 0c 	call	0x1966	; 0x1966 <__floatunsisf>
     b90:	a7 01       	movw	r20, r14
     b92:	96 01       	movw	r18, r12
     b94:	0e 94 41 0d 	call	0x1a82	; 0x1a82 <__mulsf3>
     b98:	20 e0       	ldi	r18, 0x00	; 0
     b9a:	30 e0       	ldi	r19, 0x00	; 0
     b9c:	48 ec       	ldi	r20, 0xC8	; 200
     b9e:	52 e4       	ldi	r21, 0x42	; 66
     ba0:	0e 94 12 0c 	call	0x1824	; 0x1824 <__divsf3>
     ba4:	20 e0       	ldi	r18, 0x00	; 0
     ba6:	30 e0       	ldi	r19, 0x00	; 0
     ba8:	40 e8       	ldi	r20, 0x80	; 128
     baa:	5f e3       	ldi	r21, 0x3F	; 63
     bac:	0e 94 a5 0b 	call	0x174a	; 0x174a <__subsf3>
     bb0:	0e 94 84 0c 	call	0x1908	; 0x1908 <__fixunssfsi>
     bb4:	7b bd       	out	0x2b, r23	; 43
     bb6:	6a bd       	out	0x2a, r22	; 42
	//set prescaller to 64
	SET_BIT  (TCCR1B_REGISTER, CS10_BIT );
     bb8:	8e b5       	in	r24, 0x2e	; 46
     bba:	81 60       	ori	r24, 0x01	; 1
     bbc:	8e bd       	out	0x2e, r24	; 46
	SET_BIT  (TCCR1B_REGISTER, CS11_BIT );
     bbe:	8e b5       	in	r24, 0x2e	; 46
     bc0:	82 60       	ori	r24, 0x02	; 2
     bc2:	8e bd       	out	0x2e, r24	; 46
	CLEAR_BIT(TCCR1B_REGISTER, CS12_BIT); 
     bc4:	8e b5       	in	r24, 0x2e	; 46
     bc6:	8b 7f       	andi	r24, 0xFB	; 251
     bc8:	8e bd       	out	0x2e, r24	; 46
}
     bca:	ff 90       	pop	r15
     bcc:	ef 90       	pop	r14
     bce:	df 90       	pop	r13
     bd0:	cf 90       	pop	r12
     bd2:	08 95       	ret

00000bd4 <PWM2_voidInit>:
#include "pwm2_registers.h"


void PWM2_voidInit (){
	//set fast PWM mode
	SET_BIT(TCCR2_REGISTER,WGM20_BIT);
     bd4:	85 b5       	in	r24, 0x25	; 37
     bd6:	80 64       	ori	r24, 0x40	; 64
     bd8:	85 bd       	out	0x25, r24	; 37
	SET_BIT(TCCR2_REGISTER,WGM21_BIT);
     bda:	85 b5       	in	r24, 0x25	; 37
     bdc:	88 60       	ori	r24, 0x08	; 8
     bde:	85 bd       	out	0x25, r24	; 37
	//set PWM mode to non inverting
	SET_BIT  (TCCR2_REGISTER,COM21_BIT);
     be0:	85 b5       	in	r24, 0x25	; 37
     be2:	80 62       	ori	r24, 0x20	; 32
     be4:	85 bd       	out	0x25, r24	; 37
	CLEAR_BIT(TCCR2_REGISTER,COM20_BIT);
     be6:	85 b5       	in	r24, 0x25	; 37
     be8:	8f 7e       	andi	r24, 0xEF	; 239
     bea:	85 bd       	out	0x25, r24	; 37
	//set oc2 pin as output
	DIO_voidSetPinDirection(DIO_PORTD,DIO_PIN7,DIO_OUTPUT);
     bec:	41 e0       	ldi	r20, 0x01	; 1
     bee:	67 e0       	ldi	r22, 0x07	; 7
     bf0:	83 e0       	ldi	r24, 0x03	; 3
     bf2:	0e 94 3d 01 	call	0x27a	; 0x27a <DIO_voidSetPinDirection>
     bf6:	08 95       	ret

00000bf8 <PWM2_voidStart>:
}
void PWM2_voidStart(u8 copy_u8DutyCycle){
	OCR2_REGISTER = (((copy_u8DutyCycle*256)/100)-1);
     bf8:	98 2f       	mov	r25, r24
     bfa:	80 e0       	ldi	r24, 0x00	; 0
     bfc:	64 e6       	ldi	r22, 0x64	; 100
     bfe:	70 e0       	ldi	r23, 0x00	; 0
     c00:	0e 94 ae 0d 	call	0x1b5c	; 0x1b5c <__divmodhi4>
     c04:	61 50       	subi	r22, 0x01	; 1
     c06:	63 bd       	out	0x23, r22	; 35
	
	//set prescaller to 64 & start timer
	SET_BIT  (TCCR2_REGISTER,CS20_BIT);
     c08:	85 b5       	in	r24, 0x25	; 37
     c0a:	81 60       	ori	r24, 0x01	; 1
     c0c:	85 bd       	out	0x25, r24	; 37
	SET_BIT  (TCCR2_REGISTER,CS21_BIT);
     c0e:	85 b5       	in	r24, 0x25	; 37
     c10:	82 60       	ori	r24, 0x02	; 2
     c12:	85 bd       	out	0x25, r24	; 37
	CLEAR_BIT(TCCR2_REGISTER,CS22_BIT);
     c14:	85 b5       	in	r24, 0x25	; 37
     c16:	8b 7f       	andi	r24, 0xFB	; 251
     c18:	85 bd       	out	0x25, r24	; 37
     c1a:	08 95       	ret

00000c1c <PWM2_voidStop>:
}
void PWM2_voidStop (){
	CLEAR_BIT(TCCR2_REGISTER,CS20_BIT);
     c1c:	85 b5       	in	r24, 0x25	; 37
     c1e:	8e 7f       	andi	r24, 0xFE	; 254
     c20:	85 bd       	out	0x25, r24	; 37
	CLEAR_BIT(TCCR2_REGISTER,CS21_BIT);
     c22:	85 b5       	in	r24, 0x25	; 37
     c24:	8d 7f       	andi	r24, 0xFD	; 253
     c26:	85 bd       	out	0x25, r24	; 37
	CLEAR_BIT(TCCR2_REGISTER,CS22_BIT);
     c28:	85 b5       	in	r24, 0x25	; 37
     c2a:	8b 7f       	andi	r24, 0xFB	; 251
     c2c:	85 bd       	out	0x25, r24	; 37
     c2e:	08 95       	ret

00000c30 <priv_voidTempSensorSystem>:
		}
		break;
	}
}

void priv_voidTempSensorSystem(){
     c30:	cf 92       	push	r12
     c32:	df 92       	push	r13
     c34:	ef 92       	push	r14
     c36:	ff 92       	push	r15
     c38:	cf 93       	push	r28
     c3a:	df 93       	push	r29
	u16 local_u16DigitalValue;
	u16 local_u16AnalogValue;
	local_u16DigitalValue = ADC_u16GetAdcResult(ADC_ADC0);
     c3c:	80 e0       	ldi	r24, 0x00	; 0
     c3e:	0e 94 81 00 	call	0x102	; 0x102 <ADC_u16GetAdcResult>
	local_u16AnalogValue = ((u32)local_u16DigitalValue*500)/1024;
     c42:	9c 01       	movw	r18, r24
     c44:	a4 ef       	ldi	r26, 0xF4	; 244
     c46:	b1 e0       	ldi	r27, 0x01	; 1
     c48:	0e 94 ea 0d 	call	0x1bd4	; 0x1bd4 <__umulhisi3>
     c4c:	6b 01       	movw	r12, r22
     c4e:	7c 01       	movw	r14, r24
     c50:	0b 2e       	mov	r0, r27
     c52:	ba e0       	ldi	r27, 0x0A	; 10
     c54:	f6 94       	lsr	r15
     c56:	e7 94       	ror	r14
     c58:	d7 94       	ror	r13
     c5a:	c7 94       	ror	r12
     c5c:	ba 95       	dec	r27
     c5e:	d1 f7       	brne	.-12     	; 0xc54 <priv_voidTempSensorSystem+0x24>
     c60:	b0 2d       	mov	r27, r0
     c62:	e6 01       	movw	r28, r12
	LCD_voidClearDisplay();
     c64:	0e 94 2c 05 	call	0xa58	; 0xa58 <LCD_voidClearDisplay>
	LCD_voidDisplayString("Temperature:");
     c68:	8c e6       	ldi	r24, 0x6C	; 108
     c6a:	90 e0       	ldi	r25, 0x00	; 0
     c6c:	0e 94 13 05 	call	0xa26	; 0xa26 <LCD_voidDisplayString>
	LCD_voidDisplayNumber(local_u16AnalogValue);
     c70:	c7 01       	movw	r24, r14
     c72:	b6 01       	movw	r22, r12
     c74:	88 27       	eor	r24, r24
     c76:	99 27       	eor	r25, r25
     c78:	0e 94 30 05 	call	0xa60	; 0xa60 <LCD_voidDisplayNumber>
	LCD_voidDisplayCharacter('C');
     c7c:	83 e4       	ldi	r24, 0x43	; 67
     c7e:	0e 94 02 05 	call	0xa04	; 0xa04 <LCD_voidDisplayCharacter>
	if(local_u16AnalogValue >= 37){
     c82:	c5 32       	cpi	r28, 0x25	; 37
     c84:	d1 05       	cpc	r29, r1
     c86:	20 f0       	brcs	.+8      	; 0xc90 <priv_voidTempSensorSystem+0x60>
		PWM2_voidStart(100);
     c88:	84 e6       	ldi	r24, 0x64	; 100
     c8a:	0e 94 fc 05 	call	0xbf8	; 0xbf8 <PWM2_voidStart>
     c8e:	1b c0       	rjmp	.+54     	; 0xcc6 <priv_voidTempSensorSystem+0x96>
	}
	else if(local_u16AnalogValue >= 34){
     c90:	c2 32       	cpi	r28, 0x22	; 34
     c92:	d1 05       	cpc	r29, r1
     c94:	20 f0       	brcs	.+8      	; 0xc9e <priv_voidTempSensorSystem+0x6e>
		PWM2_voidStart(75);
     c96:	8b e4       	ldi	r24, 0x4B	; 75
     c98:	0e 94 fc 05 	call	0xbf8	; 0xbf8 <PWM2_voidStart>
     c9c:	14 c0       	rjmp	.+40     	; 0xcc6 <priv_voidTempSensorSystem+0x96>
	}
	else if(local_u16AnalogValue >= 30){
     c9e:	ce 31       	cpi	r28, 0x1E	; 30
     ca0:	d1 05       	cpc	r29, r1
     ca2:	20 f0       	brcs	.+8      	; 0xcac <priv_voidTempSensorSystem+0x7c>
		PWM2_voidStart(50);
     ca4:	82 e3       	ldi	r24, 0x32	; 50
     ca6:	0e 94 fc 05 	call	0xbf8	; 0xbf8 <PWM2_voidStart>
     caa:	0d c0       	rjmp	.+26     	; 0xcc6 <priv_voidTempSensorSystem+0x96>
	}
	else if(local_u16AnalogValue >= 27){
     cac:	6b 97       	sbiw	r28, 0x1b	; 27
     cae:	20 f0       	brcs	.+8      	; 0xcb8 <priv_voidTempSensorSystem+0x88>
		PWM2_voidStart(25);
     cb0:	89 e1       	ldi	r24, 0x19	; 25
     cb2:	0e 94 fc 05 	call	0xbf8	; 0xbf8 <PWM2_voidStart>
     cb6:	07 c0       	rjmp	.+14     	; 0xcc6 <priv_voidTempSensorSystem+0x96>
	}
	else{
		DIO_voidSetPinValue(DIO_PORTB,DIO_PIN0,DIO_HIGH);
     cb8:	41 e0       	ldi	r20, 0x01	; 1
     cba:	60 e0       	ldi	r22, 0x00	; 0
     cbc:	81 e0       	ldi	r24, 0x01	; 1
     cbe:	0e 94 aa 01 	call	0x354	; 0x354 <DIO_voidSetPinValue>
		PWM2_voidStop();
     cc2:	0e 94 0e 06 	call	0xc1c	; 0xc1c <PWM2_voidStop>
	}
}
     cc6:	df 91       	pop	r29
     cc8:	cf 91       	pop	r28
     cca:	ff 90       	pop	r15
     ccc:	ef 90       	pop	r14
     cce:	df 90       	pop	r13
     cd0:	cf 90       	pop	r12
     cd2:	08 95       	ret

00000cd4 <priv_voidInitLightSystem>:
	EEPROM_voidWriteByte(USER_COUNTER_ADDRESSS,0);
	DIO_voidSetPinDirection(DIO_PORTB,DIO_PIN4,DIO_OUTPUT);
}

void priv_voidInitLightSystem(){
	DIO_voidSetPinDirection(DIO_PORTC,DIO_PIN2,DIO_OUTPUT);
     cd4:	41 e0       	ldi	r20, 0x01	; 1
     cd6:	62 e0       	ldi	r22, 0x02	; 2
     cd8:	82 e0       	ldi	r24, 0x02	; 2
     cda:	0e 94 3d 01 	call	0x27a	; 0x27a <DIO_voidSetPinDirection>
	DIO_voidSetPinDirection(DIO_PORTC,DIO_PIN3,DIO_OUTPUT);
     cde:	41 e0       	ldi	r20, 0x01	; 1
     ce0:	63 e0       	ldi	r22, 0x03	; 3
     ce2:	82 e0       	ldi	r24, 0x02	; 2
     ce4:	0e 94 3d 01 	call	0x27a	; 0x27a <DIO_voidSetPinDirection>
	DIO_voidSetPinDirection(DIO_PORTC,DIO_PIN4,DIO_OUTPUT);
     ce8:	41 e0       	ldi	r20, 0x01	; 1
     cea:	64 e0       	ldi	r22, 0x04	; 4
     cec:	82 e0       	ldi	r24, 0x02	; 2
     cee:	0e 94 3d 01 	call	0x27a	; 0x27a <DIO_voidSetPinDirection>
	DIO_voidSetPinDirection(DIO_PORTC,DIO_PIN5,DIO_OUTPUT);
     cf2:	41 e0       	ldi	r20, 0x01	; 1
     cf4:	65 e0       	ldi	r22, 0x05	; 5
     cf6:	82 e0       	ldi	r24, 0x02	; 2
     cf8:	0e 94 3d 01 	call	0x27a	; 0x27a <DIO_voidSetPinDirection>
     cfc:	08 95       	ret

00000cfe <SmartHome_voidInitSystem>:
#include "pwm2_interface.h"
//=========================//


void SmartHome_voidInitSystem(){
	GI_voidEnableGeneralInterrupt();
     cfe:	0e 94 ff 02 	call	0x5fe	; 0x5fe <GI_voidEnableGeneralInterrupt>
	EEPROM_voidInit();
     d02:	0e 94 4b 02 	call	0x496	; 0x496 <EEPROM_voidInit>
	UART_voidInit();
     d06:	0e 94 6c 0b 	call	0x16d8	; 0x16d8 <UART_voidInit>
	ADC_voidInit(ADC_AVCC);
     d0a:	81 e0       	ldi	r24, 0x01	; 1
     d0c:	0e 94 51 00 	call	0xa2	; 0xa2 <ADC_voidInit>
	PWM1_voidInit();
     d10:	0e 94 95 05 	call	0xb2a	; 0xb2a <PWM1_voidInit>
	LCD_voidInit();
     d14:	0e 94 aa 04 	call	0x954	; 0x954 <LCD_voidInit>
	KEYPAD_voidInit();
     d18:	0e 94 79 03 	call	0x6f2	; 0x6f2 <KEYPAD_voidInit>
	EXTI_voidExternalInterruptInit(EXTI_EXTI0,EXTI_RISING_EDGE);
     d1c:	63 e0       	ldi	r22, 0x03	; 3
     d1e:	80 e0       	ldi	r24, 0x00	; 0
     d20:	0e 94 91 02 	call	0x522	; 0x522 <EXTI_voidExternalInterruptInit>
	EXTI_voidExternalInterruptEnable(EXTI_EXTI0);
     d24:	80 e0       	ldi	r24, 0x00	; 0
     d26:	0e 94 ed 02 	call	0x5da	; 0x5da <EXTI_voidExternalInterruptEnable>
	TIMER0_voidInit(TIMER0_CTC_MODE);
     d2a:	81 e0       	ldi	r24, 0x01	; 1
     d2c:	0e 94 d2 0a 	call	0x15a4	; 0x15a4 <TIMER0_voidInit>
	TIMER0_voidSetCallBackFunction(priv_voidTempSensorSystem);
     d30:	88 e1       	ldi	r24, 0x18	; 24
     d32:	96 e0       	ldi	r25, 0x06	; 6
     d34:	0e 94 f8 0a 	call	0x15f0	; 0x15f0 <TIMER0_voidSetCallBackFunction>
	TIMER0_voidStartTimer();
     d38:	0e 94 ee 0a 	call	0x15dc	; 0x15dc <TIMER0_voidStartTimer>
	PWM2_voidInit();
     d3c:	0e 94 ea 05 	call	0xbd4	; 0xbd4 <PWM2_voidInit>
	priv_voidInitLightSystem();
     d40:	0e 94 6a 06 	call	0xcd4	; 0xcd4 <priv_voidInitLightSystem>
	DIO_voidSetPinDirection(DIO_PORTB,DIO_PIN0,DIO_OUTPUT);//fan control pin
     d44:	41 e0       	ldi	r20, 0x01	; 1
     d46:	60 e0       	ldi	r22, 0x00	; 0
     d48:	81 e0       	ldi	r24, 0x01	; 1
     d4a:	0e 94 3d 01 	call	0x27a	; 0x27a <DIO_voidSetPinDirection>
	DIO_voidSetPinValue(DIO_PORTB,DIO_PIN0,DIO_HIGH);      //fan control pin
     d4e:	41 e0       	ldi	r20, 0x01	; 1
     d50:	60 e0       	ldi	r22, 0x00	; 0
     d52:	81 e0       	ldi	r24, 0x01	; 1
     d54:	0e 94 aa 01 	call	0x354	; 0x354 <DIO_voidSetPinValue>
	EEPROM_voidWriteByte(USER_COUNTER_ADDRESSS,0);
     d58:	60 e0       	ldi	r22, 0x00	; 0
     d5a:	8f ef       	ldi	r24, 0xFF	; 255
     d5c:	90 e0       	ldi	r25, 0x00	; 0
     d5e:	0e 94 4e 02 	call	0x49c	; 0x49c <EEPROM_voidWriteByte>
	DIO_voidSetPinDirection(DIO_PORTB,DIO_PIN4,DIO_OUTPUT);
     d62:	41 e0       	ldi	r20, 0x01	; 1
     d64:	64 e0       	ldi	r22, 0x04	; 4
     d66:	81 e0       	ldi	r24, 0x01	; 1
     d68:	0e 94 3d 01 	call	0x27a	; 0x27a <DIO_voidSetPinDirection>
     d6c:	08 95       	ret

00000d6e <priv_voidAddUser>:
			_delay_ms(2000);
		}
}


void priv_voidAddUser() {
     d6e:	df 92       	push	r13
     d70:	ef 92       	push	r14
     d72:	ff 92       	push	r15
     d74:	0f 93       	push	r16
     d76:	1f 93       	push	r17
     d78:	cf 93       	push	r28
     d7a:	df 93       	push	r29
     d7c:	00 d0       	rcall	.+0      	; 0xd7e <priv_voidAddUser+0x10>
     d7e:	00 d0       	rcall	.+0      	; 0xd80 <priv_voidAddUser+0x12>
     d80:	cd b7       	in	r28, 0x3d	; 61
     d82:	de b7       	in	r29, 0x3e	; 62
	u8 local_u8NumberOfUsers = 0;
     d84:	19 82       	std	Y+1, r1	; 0x01
	bool validUserId = false;
	u8 local_u8StoredUserId;
	bool userIdExists = false;
	
	// get number of users in the system
	EEPROM_voidReadByte(USER_COUNTER_ADDRESSS, &local_u8NumberOfUsers);
     d86:	be 01       	movw	r22, r28
     d88:	6f 5f       	subi	r22, 0xFF	; 255
     d8a:	7f 4f       	sbci	r23, 0xFF	; 255
     d8c:	8f ef       	ldi	r24, 0xFF	; 255
     d8e:	90 e0       	ldi	r25, 0x00	; 0
     d90:	0e 94 6c 02 	call	0x4d8	; 0x4d8 <EEPROM_voidReadByte>
	
	if (local_u8NumberOfUsers >= MAX_NUMBER_OF_USERS) {
     d94:	89 81       	ldd	r24, Y+1	; 0x01
     d96:	82 33       	cpi	r24, 0x32	; 50
     d98:	08 f4       	brcc	.+2      	; 0xd9c <priv_voidAddUser+0x2e>
     d9a:	79 c0       	rjmp	.+242    	; 0xe8e <priv_voidAddUser+0x120>
		UART_voidTxString("Max number of users reached!\r\n");
     d9c:	89 e7       	ldi	r24, 0x79	; 121
     d9e:	90 e0       	ldi	r25, 0x00	; 0
     da0:	0e 94 90 0b 	call	0x1720	; 0x1720 <UART_voidTxString>
     da4:	2f ef       	ldi	r18, 0xFF	; 255
     da6:	87 ea       	ldi	r24, 0xA7	; 167
     da8:	91 e6       	ldi	r25, 0x61	; 97
     daa:	21 50       	subi	r18, 0x01	; 1
     dac:	80 40       	sbci	r24, 0x00	; 0
     dae:	90 40       	sbci	r25, 0x00	; 0
     db0:	e1 f7       	brne	.-8      	; 0xdaa <priv_voidAddUser+0x3c>
     db2:	00 c0       	rjmp	.+0      	; 0xdb4 <priv_voidAddUser+0x46>
     db4:	00 00       	nop
     db6:	aa c0       	rjmp	.+340    	; 0xf0c <priv_voidAddUser+0x19e>
	
	// Get user ID and add it to memory
	while (!validUserId) { // Continue until valid user ID is entered
		userIdExists = false;
		local_u16userId = 0;
		UART_voidTxString("Enter new user ID: ");
     db8:	88 e9       	ldi	r24, 0x98	; 152
     dba:	90 e0       	ldi	r25, 0x00	; 0
     dbc:	0e 94 90 0b 	call	0x1720	; 0x1720 <UART_voidTxString>
		
		// Input user ID
		for (int i = 0; i < USER_ID_SIZE; ++i) {
     dc0:	00 e0       	ldi	r16, 0x00	; 0
     dc2:	10 e0       	ldi	r17, 0x00	; 0
	}
	
	// Get user ID and add it to memory
	while (!validUserId) { // Continue until valid user ID is entered
		userIdExists = false;
		local_u16userId = 0;
     dc4:	e1 2c       	mov	r14, r1
     dc6:	f1 2c       	mov	r15, r1
		UART_voidTxString("Enter new user ID: ");
		
		// Input user ID
		for (int i = 0; i < USER_ID_SIZE; ++i) {
     dc8:	16 c0       	rjmp	.+44     	; 0xdf6 <priv_voidAddUser+0x88>
			local_u16userId *= 10;
     dca:	c7 01       	movw	r24, r14
     dcc:	88 0f       	add	r24, r24
     dce:	99 1f       	adc	r25, r25
     dd0:	ee 0c       	add	r14, r14
     dd2:	ff 1c       	adc	r15, r15
     dd4:	ee 0c       	add	r14, r14
     dd6:	ff 1c       	adc	r15, r15
     dd8:	ee 0c       	add	r14, r14
     dda:	ff 1c       	adc	r15, r15
     ddc:	e8 0e       	add	r14, r24
     dde:	f9 1e       	adc	r15, r25
			UART_voidRxChar(&local_u8userIdDigit);
     de0:	ce 01       	movw	r24, r28
     de2:	03 96       	adiw	r24, 0x03	; 3
     de4:	0e 94 8a 0b 	call	0x1714	; 0x1714 <UART_voidRxChar>
			local_u8userIdDigit -= '0';
     de8:	8b 81       	ldd	r24, Y+3	; 0x03
     dea:	80 53       	subi	r24, 0x30	; 48
     dec:	8b 83       	std	Y+3, r24	; 0x03
			local_u16userId += local_u8userIdDigit;
     dee:	e8 0e       	add	r14, r24
     df0:	f1 1c       	adc	r15, r1
		userIdExists = false;
		local_u16userId = 0;
		UART_voidTxString("Enter new user ID: ");
		
		// Input user ID
		for (int i = 0; i < USER_ID_SIZE; ++i) {
     df2:	0f 5f       	subi	r16, 0xFF	; 255
     df4:	1f 4f       	sbci	r17, 0xFF	; 255
     df6:	03 30       	cpi	r16, 0x03	; 3
     df8:	11 05       	cpc	r17, r1
     dfa:	3c f3       	brlt	.-50     	; 0xdca <priv_voidAddUser+0x5c>
			UART_voidRxChar(&local_u8userIdDigit);
			local_u8userIdDigit -= '0';
			local_u16userId += local_u8userIdDigit;
		}
		
		UART_voidTxString("\r\n"); // New line
     dfc:	85 e0       	ldi	r24, 0x05	; 5
     dfe:	91 e0       	ldi	r25, 0x01	; 1
     e00:	0e 94 90 0b 	call	0x1720	; 0x1720 <UART_voidTxString>
		
		// Validate user ID range
		if (local_u16userId > 255 || local_u16userId < 100) {
     e04:	c7 01       	movw	r24, r14
     e06:	84 56       	subi	r24, 0x64	; 100
     e08:	91 09       	sbc	r25, r1
     e0a:	8c 39       	cpi	r24, 0x9C	; 156
     e0c:	91 05       	cpc	r25, r1
     e0e:	58 f1       	brcs	.+86     	; 0xe66 <priv_voidAddUser+0xf8>
			UART_voidTxString("User ID isn't valid!\r\n");
     e10:	8c ea       	ldi	r24, 0xAC	; 172
     e12:	90 e0       	ldi	r25, 0x00	; 0
     e14:	0e 94 90 0b 	call	0x1720	; 0x1720 <UART_voidTxString>
     e18:	2f ef       	ldi	r18, 0xFF	; 255
     e1a:	87 ea       	ldi	r24, 0xA7	; 167
     e1c:	91 e6       	ldi	r25, 0x61	; 97
     e1e:	21 50       	subi	r18, 0x01	; 1
     e20:	80 40       	sbci	r24, 0x00	; 0
     e22:	90 40       	sbci	r25, 0x00	; 0
     e24:	e1 f7       	brne	.-8      	; 0xe1e <priv_voidAddUser+0xb0>
     e26:	00 c0       	rjmp	.+0      	; 0xe28 <priv_voidAddUser+0xba>
     e28:	00 00       	nop
			_delay_ms(2000);
			continue; // Ask for a new ID
     e2a:	34 c0       	rjmp	.+104    	; 0xe94 <priv_voidAddUser+0x126>
		}

		// Check if the user ID already exists
		for (int i = 0; i < local_u8NumberOfUsers * (PASSWORD_LENGTH + 1); i += PASSWORD_LENGTH + 1) {
			EEPROM_voidReadByte(i, &local_u8StoredUserId);
     e2c:	be 01       	movw	r22, r28
     e2e:	6c 5f       	subi	r22, 0xFC	; 252
     e30:	7f 4f       	sbci	r23, 0xFF	; 255
     e32:	c8 01       	movw	r24, r16
     e34:	0e 94 6c 02 	call	0x4d8	; 0x4d8 <EEPROM_voidReadByte>
			if (local_u8StoredUserId == local_u16userId) {
     e38:	8c 81       	ldd	r24, Y+4	; 0x04
     e3a:	90 e0       	ldi	r25, 0x00	; 0
     e3c:	e8 16       	cp	r14, r24
     e3e:	f9 06       	cpc	r15, r25
     e40:	79 f4       	brne	.+30     	; 0xe60 <priv_voidAddUser+0xf2>
				UART_voidTxString("This user ID already exists.\r\n");
     e42:	83 ec       	ldi	r24, 0xC3	; 195
     e44:	90 e0       	ldi	r25, 0x00	; 0
     e46:	0e 94 90 0b 	call	0x1720	; 0x1720 <UART_voidTxString>
     e4a:	2f ef       	ldi	r18, 0xFF	; 255
     e4c:	87 ea       	ldi	r24, 0xA7	; 167
     e4e:	91 e6       	ldi	r25, 0x61	; 97
     e50:	21 50       	subi	r18, 0x01	; 1
     e52:	80 40       	sbci	r24, 0x00	; 0
     e54:	90 40       	sbci	r25, 0x00	; 0
     e56:	e1 f7       	brne	.-8      	; 0xe50 <priv_voidAddUser+0xe2>
     e58:	00 c0       	rjmp	.+0      	; 0xe5a <priv_voidAddUser+0xec>
     e5a:	00 00       	nop
				_delay_ms(2000);
				userIdExists = true; // Mark as existing
     e5c:	81 e0       	ldi	r24, 0x01	; 1
				break;
     e5e:	12 c0       	rjmp	.+36     	; 0xe84 <priv_voidAddUser+0x116>
			_delay_ms(2000);
			continue; // Ask for a new ID
		}

		// Check if the user ID already exists
		for (int i = 0; i < local_u8NumberOfUsers * (PASSWORD_LENGTH + 1); i += PASSWORD_LENGTH + 1) {
     e60:	0b 5f       	subi	r16, 0xFB	; 251
     e62:	1f 4f       	sbci	r17, 0xFF	; 255
     e64:	02 c0       	rjmp	.+4      	; 0xe6a <priv_voidAddUser+0xfc>
     e66:	00 e0       	ldi	r16, 0x00	; 0
     e68:	10 e0       	ldi	r17, 0x00	; 0
     e6a:	89 81       	ldd	r24, Y+1	; 0x01
     e6c:	90 e0       	ldi	r25, 0x00	; 0
     e6e:	9c 01       	movw	r18, r24
     e70:	22 0f       	add	r18, r18
     e72:	33 1f       	adc	r19, r19
     e74:	22 0f       	add	r18, r18
     e76:	33 1f       	adc	r19, r19
     e78:	82 0f       	add	r24, r18
     e7a:	93 1f       	adc	r25, r19
     e7c:	08 17       	cp	r16, r24
     e7e:	19 07       	cpc	r17, r25
     e80:	ac f2       	brlt	.-86     	; 0xe2c <priv_voidAddUser+0xbe>
		return;
	}
	
	// Get user ID and add it to memory
	while (!validUserId) { // Continue until valid user ID is entered
		userIdExists = false;
     e82:	80 e0       	ldi	r24, 0x00	; 0
				break;
			}
		}

		// If no conflict, set validUserId to true
		if (!userIdExists) {
     e84:	81 11       	cpse	r24, r1
     e86:	06 c0       	rjmp	.+12     	; 0xe94 <priv_voidAddUser+0x126>
			validUserId = true;
     e88:	dd 24       	eor	r13, r13
     e8a:	d3 94       	inc	r13
     e8c:	03 c0       	rjmp	.+6      	; 0xe94 <priv_voidAddUser+0x126>
     e8e:	d1 2c       	mov	r13, r1
     e90:	e1 2c       	mov	r14, r1
     e92:	f1 2c       	mov	r15, r1
		_delay_ms(2000);
		return;
	}
	
	// Get user ID and add it to memory
	while (!validUserId) { // Continue until valid user ID is entered
     e94:	dd 20       	and	r13, r13
     e96:	09 f4       	brne	.+2      	; 0xe9a <priv_voidAddUser+0x12c>
     e98:	8f cf       	rjmp	.-226    	; 0xdb8 <priv_voidAddUser+0x4a>
			validUserId = true;
		}
	}

	// Store the user ID in memory
	EEPROM_voidWriteByte(local_u8NumberOfUsers * (PASSWORD_LENGTH + 1), local_u16userId);
     e9a:	89 81       	ldd	r24, Y+1	; 0x01
     e9c:	90 e0       	ldi	r25, 0x00	; 0
     e9e:	9c 01       	movw	r18, r24
     ea0:	22 0f       	add	r18, r18
     ea2:	33 1f       	adc	r19, r19
     ea4:	22 0f       	add	r18, r18
     ea6:	33 1f       	adc	r19, r19
     ea8:	6e 2d       	mov	r22, r14
     eaa:	82 0f       	add	r24, r18
     eac:	93 1f       	adc	r25, r19
     eae:	0e 94 4e 02 	call	0x49c	; 0x49c <EEPROM_voidWriteByte>

	// Get password from user and store it
	UART_voidTxString("Set new user password: ");
     eb2:	82 ee       	ldi	r24, 0xE2	; 226
     eb4:	90 e0       	ldi	r25, 0x00	; 0
     eb6:	0e 94 90 0b 	call	0x1720	; 0x1720 <UART_voidTxString>
	for (int i = 0; i < PASSWORD_LENGTH; ++i) {
     eba:	00 e0       	ldi	r16, 0x00	; 0
     ebc:	10 e0       	ldi	r17, 0x00	; 0
     ebe:	15 c0       	rjmp	.+42     	; 0xeea <priv_voidAddUser+0x17c>
		UART_voidRxChar(&local_u8PasswordDigit);
     ec0:	ce 01       	movw	r24, r28
     ec2:	02 96       	adiw	r24, 0x02	; 2
     ec4:	0e 94 8a 0b 	call	0x1714	; 0x1714 <UART_voidRxChar>
		EEPROM_voidWriteByte(local_u8NumberOfUsers * (PASSWORD_LENGTH + 1) + 1 + i, local_u8PasswordDigit);
     ec8:	89 81       	ldd	r24, Y+1	; 0x01
     eca:	90 e0       	ldi	r25, 0x00	; 0
     ecc:	9c 01       	movw	r18, r24
     ece:	22 0f       	add	r18, r18
     ed0:	33 1f       	adc	r19, r19
     ed2:	22 0f       	add	r18, r18
     ed4:	33 1f       	adc	r19, r19
     ed6:	82 0f       	add	r24, r18
     ed8:	93 1f       	adc	r25, r19
     eda:	01 96       	adiw	r24, 0x01	; 1
     edc:	6a 81       	ldd	r22, Y+2	; 0x02
     ede:	80 0f       	add	r24, r16
     ee0:	91 1f       	adc	r25, r17
     ee2:	0e 94 4e 02 	call	0x49c	; 0x49c <EEPROM_voidWriteByte>
	// Store the user ID in memory
	EEPROM_voidWriteByte(local_u8NumberOfUsers * (PASSWORD_LENGTH + 1), local_u16userId);

	// Get password from user and store it
	UART_voidTxString("Set new user password: ");
	for (int i = 0; i < PASSWORD_LENGTH; ++i) {
     ee6:	0f 5f       	subi	r16, 0xFF	; 255
     ee8:	1f 4f       	sbci	r17, 0xFF	; 255
     eea:	04 30       	cpi	r16, 0x04	; 4
     eec:	11 05       	cpc	r17, r1
     eee:	44 f3       	brlt	.-48     	; 0xec0 <priv_voidAddUser+0x152>
		UART_voidRxChar(&local_u8PasswordDigit);
		EEPROM_voidWriteByte(local_u8NumberOfUsers * (PASSWORD_LENGTH + 1) + 1 + i, local_u8PasswordDigit);
	}

	UART_voidTxChar('\f'); // Clear display
     ef0:	8c e0       	ldi	r24, 0x0C	; 12
     ef2:	0e 94 86 0b 	call	0x170c	; 0x170c <UART_voidTxChar>
	
	// Increment the number of users and update in memory
	local_u8NumberOfUsers++;
     ef6:	69 81       	ldd	r22, Y+1	; 0x01
     ef8:	6f 5f       	subi	r22, 0xFF	; 255
     efa:	69 83       	std	Y+1, r22	; 0x01
	EEPROM_voidWriteByte(USER_COUNTER_ADDRESSS, local_u8NumberOfUsers);
     efc:	8f ef       	ldi	r24, 0xFF	; 255
     efe:	90 e0       	ldi	r25, 0x00	; 0
     f00:	0e 94 4e 02 	call	0x49c	; 0x49c <EEPROM_voidWriteByte>
	
	UART_voidTxString("User added!\r\n");
     f04:	8a ef       	ldi	r24, 0xFA	; 250
     f06:	90 e0       	ldi	r25, 0x00	; 0
     f08:	0e 94 90 0b 	call	0x1720	; 0x1720 <UART_voidTxString>
}
     f0c:	0f 90       	pop	r0
     f0e:	0f 90       	pop	r0
     f10:	0f 90       	pop	r0
     f12:	0f 90       	pop	r0
     f14:	df 91       	pop	r29
     f16:	cf 91       	pop	r28
     f18:	1f 91       	pop	r17
     f1a:	0f 91       	pop	r16
     f1c:	ff 90       	pop	r15
     f1e:	ef 90       	pop	r14
     f20:	df 90       	pop	r13
     f22:	08 95       	ret

00000f24 <priv_voidLockSystem>:
			return;
			break;
		}
	}
}
void priv_voidLockSystem(){
     f24:	ff cf       	rjmp	.-2      	; 0xf24 <priv_voidLockSystem>

00000f26 <priv_voidCheckPassword>:
}




void priv_voidCheckPassword(u8* copy_pu8UserPassword){
     f26:	df 92       	push	r13
     f28:	ef 92       	push	r14
     f2a:	ff 92       	push	r15
     f2c:	0f 93       	push	r16
     f2e:	1f 93       	push	r17
     f30:	cf 93       	push	r28
     f32:	df 93       	push	r29
     f34:	00 d0       	rcall	.+0      	; 0xf36 <priv_voidCheckPassword+0x10>
     f36:	00 d0       	rcall	.+0      	; 0xf38 <priv_voidCheckPassword+0x12>
     f38:	cd b7       	in	r28, 0x3d	; 61
     f3a:	de b7       	in	r29, 0x3e	; 62
     f3c:	7c 01       	movw	r14, r24
	u8 local_u8WrongPasswordCounter = 0;
     f3e:	d1 2c       	mov	r13, r1
	u8 local_u8InputPassword[PASSWORD_LENGTH];
	//loop to get input password and check if the input password is correct
	while(local_u8WrongPasswordCounter < MAX_NUMBER_OF_WRONG_ATTEMPTS){
     f40:	3f c0       	rjmp	.+126    	; 0xfc0 <priv_voidCheckPassword+0x9a>
		bool local_boolRightPassword    = true;
		UART_voidTxString("enter password:");
     f42:	88 e0       	ldi	r24, 0x08	; 8
     f44:	91 e0       	ldi	r25, 0x01	; 1
     f46:	0e 94 90 0b 	call	0x1720	; 0x1720 <UART_voidTxString>
		
		//get user input
		for(int i = 0;i<PASSWORD_LENGTH;++i){
     f4a:	00 e0       	ldi	r16, 0x00	; 0
     f4c:	10 e0       	ldi	r17, 0x00	; 0
     f4e:	0a c0       	rjmp	.+20     	; 0xf64 <priv_voidCheckPassword+0x3e>
			UART_voidRxChar(&local_u8InputPassword[i]);
     f50:	81 e0       	ldi	r24, 0x01	; 1
     f52:	90 e0       	ldi	r25, 0x00	; 0
     f54:	8c 0f       	add	r24, r28
     f56:	9d 1f       	adc	r25, r29
     f58:	80 0f       	add	r24, r16
     f5a:	91 1f       	adc	r25, r17
     f5c:	0e 94 8a 0b 	call	0x1714	; 0x1714 <UART_voidRxChar>
	while(local_u8WrongPasswordCounter < MAX_NUMBER_OF_WRONG_ATTEMPTS){
		bool local_boolRightPassword    = true;
		UART_voidTxString("enter password:");
		
		//get user input
		for(int i = 0;i<PASSWORD_LENGTH;++i){
     f60:	0f 5f       	subi	r16, 0xFF	; 255
     f62:	1f 4f       	sbci	r17, 0xFF	; 255
     f64:	04 30       	cpi	r16, 0x04	; 4
     f66:	11 05       	cpc	r17, r1
     f68:	9c f3       	brlt	.-26     	; 0xf50 <priv_voidCheckPassword+0x2a>
			UART_voidRxChar(&local_u8InputPassword[i]);
		}
		UART_voidTxString("\r\n");//new line
     f6a:	85 e0       	ldi	r24, 0x05	; 5
     f6c:	91 e0       	ldi	r25, 0x01	; 1
     f6e:	0e 94 90 0b 	call	0x1720	; 0x1720 <UART_voidTxString>
		
		//check input password
		for(int i = 0;i<PASSWORD_LENGTH;++i){
     f72:	80 e0       	ldi	r24, 0x00	; 0
     f74:	90 e0       	ldi	r25, 0x00	; 0
     f76:	1e c0       	rjmp	.+60     	; 0xfb4 <priv_voidCheckPassword+0x8e>
			if(local_u8InputPassword[i] != copy_pu8UserPassword[i]){
     f78:	e1 e0       	ldi	r30, 0x01	; 1
     f7a:	f0 e0       	ldi	r31, 0x00	; 0
     f7c:	ec 0f       	add	r30, r28
     f7e:	fd 1f       	adc	r31, r29
     f80:	e8 0f       	add	r30, r24
     f82:	f9 1f       	adc	r31, r25
     f84:	30 81       	ld	r19, Z
     f86:	f7 01       	movw	r30, r14
     f88:	e8 0f       	add	r30, r24
     f8a:	f9 1f       	adc	r31, r25
     f8c:	20 81       	ld	r18, Z
     f8e:	32 17       	cp	r19, r18
     f90:	81 f0       	breq	.+32     	; 0xfb2 <priv_voidCheckPassword+0x8c>
				local_u8WrongPasswordCounter++;
     f92:	d3 94       	inc	r13
				local_boolRightPassword = false;
				UART_voidTxString("Wrong password, try again\r\n");
     f94:	88 e1       	ldi	r24, 0x18	; 24
     f96:	91 e0       	ldi	r25, 0x01	; 1
     f98:	0e 94 90 0b 	call	0x1720	; 0x1720 <UART_voidTxString>
     f9c:	2f ef       	ldi	r18, 0xFF	; 255
     f9e:	87 ea       	ldi	r24, 0xA7	; 167
     fa0:	91 e6       	ldi	r25, 0x61	; 97
     fa2:	21 50       	subi	r18, 0x01	; 1
     fa4:	80 40       	sbci	r24, 0x00	; 0
     fa6:	90 40       	sbci	r25, 0x00	; 0
     fa8:	e1 f7       	brne	.-8      	; 0xfa2 <priv_voidCheckPassword+0x7c>
     faa:	00 c0       	rjmp	.+0      	; 0xfac <priv_voidCheckPassword+0x86>
     fac:	00 00       	nop
		
		//check input password
		for(int i = 0;i<PASSWORD_LENGTH;++i){
			if(local_u8InputPassword[i] != copy_pu8UserPassword[i]){
				local_u8WrongPasswordCounter++;
				local_boolRightPassword = false;
     fae:	80 e0       	ldi	r24, 0x00	; 0
     fb0:	05 c0       	rjmp	.+10     	; 0xfbc <priv_voidCheckPassword+0x96>
			UART_voidRxChar(&local_u8InputPassword[i]);
		}
		UART_voidTxString("\r\n");//new line
		
		//check input password
		for(int i = 0;i<PASSWORD_LENGTH;++i){
     fb2:	01 96       	adiw	r24, 0x01	; 1
     fb4:	84 30       	cpi	r24, 0x04	; 4
     fb6:	91 05       	cpc	r25, r1
     fb8:	fc f2       	brlt	.-66     	; 0xf78 <priv_voidCheckPassword+0x52>
void priv_voidCheckPassword(u8* copy_pu8UserPassword){
	u8 local_u8WrongPasswordCounter = 0;
	u8 local_u8InputPassword[PASSWORD_LENGTH];
	//loop to get input password and check if the input password is correct
	while(local_u8WrongPasswordCounter < MAX_NUMBER_OF_WRONG_ATTEMPTS){
		bool local_boolRightPassword    = true;
     fba:	81 e0       	ldi	r24, 0x01	; 1
				break;
			}
		}
		
		//if right password, terminate function
		if(local_boolRightPassword) return;
     fbc:	81 11       	cpse	r24, r1
     fbe:	0a c0       	rjmp	.+20     	; 0xfd4 <priv_voidCheckPassword+0xae>

void priv_voidCheckPassword(u8* copy_pu8UserPassword){
	u8 local_u8WrongPasswordCounter = 0;
	u8 local_u8InputPassword[PASSWORD_LENGTH];
	//loop to get input password and check if the input password is correct
	while(local_u8WrongPasswordCounter < MAX_NUMBER_OF_WRONG_ATTEMPTS){
     fc0:	22 e0       	ldi	r18, 0x02	; 2
     fc2:	2d 15       	cp	r18, r13
     fc4:	08 f0       	brcs	.+2      	; 0xfc8 <priv_voidCheckPassword+0xa2>
     fc6:	bd cf       	rjmp	.-134    	; 0xf42 <priv_voidCheckPassword+0x1c>
		//if right password, terminate function
		if(local_boolRightPassword) return;
	}
	
	//if we break due to wrong attempts, lock system
		UART_voidTxString("Wrong input limit reached. System locked.\r\n");
     fc8:	84 e3       	ldi	r24, 0x34	; 52
     fca:	91 e0       	ldi	r25, 0x01	; 1
     fcc:	0e 94 90 0b 	call	0x1720	; 0x1720 <UART_voidTxString>
		priv_voidLockSystem();
     fd0:	0e 94 92 07 	call	0xf24	; 0xf24 <priv_voidLockSystem>
		
}
     fd4:	0f 90       	pop	r0
     fd6:	0f 90       	pop	r0
     fd8:	0f 90       	pop	r0
     fda:	0f 90       	pop	r0
     fdc:	df 91       	pop	r29
     fde:	cf 91       	pop	r28
     fe0:	1f 91       	pop	r17
     fe2:	0f 91       	pop	r16
     fe4:	ff 90       	pop	r15
     fe6:	ef 90       	pop	r14
     fe8:	df 90       	pop	r13
     fea:	08 95       	ret

00000fec <priv_voidDoorControl>:
	}
}
void priv_voidLockSystem(){
	while(1){}
}
void priv_voidDoorControl(){
     fec:	cf 93       	push	r28
     fee:	df 93       	push	r29
     ff0:	1f 92       	push	r1
     ff2:	cd b7       	in	r28, 0x3d	; 61
     ff4:	de b7       	in	r29, 0x3e	; 62
	UART_voidTxChar('\f');//clear display
     ff6:	8c e0       	ldi	r24, 0x0C	; 12
     ff8:	0e 94 86 0b 	call	0x170c	; 0x170c <UART_voidTxChar>
	u8 local_u8Choice;
	UART_voidTxString("1)open door 2)close door\r\n");
     ffc:	80 e6       	ldi	r24, 0x60	; 96
     ffe:	91 e0       	ldi	r25, 0x01	; 1
    1000:	0e 94 90 0b 	call	0x1720	; 0x1720 <UART_voidTxString>
	UART_voidRxChar(&local_u8Choice);
    1004:	ce 01       	movw	r24, r28
    1006:	01 96       	adiw	r24, 0x01	; 1
    1008:	0e 94 8a 0b 	call	0x1714	; 0x1714 <UART_voidRxChar>
	switch(local_u8Choice){
    100c:	89 81       	ldd	r24, Y+1	; 0x01
    100e:	81 33       	cpi	r24, 0x31	; 49
    1010:	19 f0       	breq	.+6      	; 0x1018 <priv_voidDoorControl+0x2c>
    1012:	82 33       	cpi	r24, 0x32	; 50
    1014:	51 f0       	breq	.+20     	; 0x102a <priv_voidDoorControl+0x3e>
    1016:	11 c0       	rjmp	.+34     	; 0x103a <priv_voidDoorControl+0x4e>
		case '1':
		PWM1_voidStart(10,50);
    1018:	42 e3       	ldi	r20, 0x32	; 50
    101a:	50 e0       	ldi	r21, 0x00	; 0
    101c:	60 e0       	ldi	r22, 0x00	; 0
    101e:	70 e0       	ldi	r23, 0x00	; 0
    1020:	80 e2       	ldi	r24, 0x20	; 32
    1022:	91 e4       	ldi	r25, 0x41	; 65
    1024:	0e 94 ad 05 	call	0xb5a	; 0xb5a <PWM1_voidStart>
		break;
    1028:	08 c0       	rjmp	.+16     	; 0x103a <priv_voidDoorControl+0x4e>
		case '2':
		PWM1_voidStart(7.5,50);
    102a:	42 e3       	ldi	r20, 0x32	; 50
    102c:	50 e0       	ldi	r21, 0x00	; 0
    102e:	60 e0       	ldi	r22, 0x00	; 0
    1030:	70 e0       	ldi	r23, 0x00	; 0
    1032:	80 ef       	ldi	r24, 0xF0	; 240
    1034:	90 e4       	ldi	r25, 0x40	; 64
    1036:	0e 94 ad 05 	call	0xb5a	; 0xb5a <PWM1_voidStart>
		break;
	}
}
    103a:	0f 90       	pop	r0
    103c:	df 91       	pop	r29
    103e:	cf 91       	pop	r28
    1040:	08 95       	ret

00001042 <priv_voidLightSystem>:
void priv_voidLightSystem(){
    1042:	cf 93       	push	r28
    1044:	df 93       	push	r29
    1046:	1f 92       	push	r1
    1048:	cd b7       	in	r28, 0x3d	; 61
    104a:	de b7       	in	r29, 0x3e	; 62
	UART_voidTxChar('\f');//clear display
    104c:	8c e0       	ldi	r24, 0x0C	; 12
    104e:	0e 94 86 0b 	call	0x170c	; 0x170c <UART_voidTxChar>
	u8 local_u8Choice;
	UART_voidTxString("1)lamp1 2)lamp2\r\n");
    1052:	8b e7       	ldi	r24, 0x7B	; 123
    1054:	91 e0       	ldi	r25, 0x01	; 1
    1056:	0e 94 90 0b 	call	0x1720	; 0x1720 <UART_voidTxString>
	UART_voidTxString("3)lamp3 4)lamp4\r\n");
    105a:	8d e8       	ldi	r24, 0x8D	; 141
    105c:	91 e0       	ldi	r25, 0x01	; 1
    105e:	0e 94 90 0b 	call	0x1720	; 0x1720 <UART_voidTxString>
	
	UART_voidRxChar(&local_u8Choice);
    1062:	ce 01       	movw	r24, r28
    1064:	01 96       	adiw	r24, 0x01	; 1
    1066:	0e 94 8a 0b 	call	0x1714	; 0x1714 <UART_voidRxChar>
	UART_voidTxString("\r\n");//new line
    106a:	85 e0       	ldi	r24, 0x05	; 5
    106c:	91 e0       	ldi	r25, 0x01	; 1
    106e:	0e 94 90 0b 	call	0x1720	; 0x1720 <UART_voidTxString>
	UART_voidTxString("1)on 2)off\r\n");
    1072:	8f e9       	ldi	r24, 0x9F	; 159
    1074:	91 e0       	ldi	r25, 0x01	; 1
    1076:	0e 94 90 0b 	call	0x1720	; 0x1720 <UART_voidTxString>
	switch(local_u8Choice){
    107a:	89 81       	ldd	r24, Y+1	; 0x01
    107c:	82 33       	cpi	r24, 0x32	; 50
    107e:	21 f1       	breq	.+72     	; 0x10c8 <priv_voidLightSystem+0x86>
    1080:	18 f4       	brcc	.+6      	; 0x1088 <priv_voidLightSystem+0x46>
    1082:	81 33       	cpi	r24, 0x31	; 49
    1084:	39 f0       	breq	.+14     	; 0x1094 <priv_voidLightSystem+0x52>
    1086:	6d c0       	rjmp	.+218    	; 0x1162 <priv_voidLightSystem+0x120>
    1088:	83 33       	cpi	r24, 0x33	; 51
    108a:	c1 f1       	breq	.+112    	; 0x10fc <priv_voidLightSystem+0xba>
    108c:	84 33       	cpi	r24, 0x34	; 52
    108e:	09 f4       	brne	.+2      	; 0x1092 <priv_voidLightSystem+0x50>
    1090:	4f c0       	rjmp	.+158    	; 0x1130 <priv_voidLightSystem+0xee>
    1092:	67 c0       	rjmp	.+206    	; 0x1162 <priv_voidLightSystem+0x120>
		case '1':
		UART_voidRxChar(&local_u8Choice);
    1094:	ce 01       	movw	r24, r28
    1096:	01 96       	adiw	r24, 0x01	; 1
    1098:	0e 94 8a 0b 	call	0x1714	; 0x1714 <UART_voidRxChar>
		UART_voidTxString("\r\n");//new line
    109c:	85 e0       	ldi	r24, 0x05	; 5
    109e:	91 e0       	ldi	r25, 0x01	; 1
    10a0:	0e 94 90 0b 	call	0x1720	; 0x1720 <UART_voidTxString>
		switch(local_u8Choice){
    10a4:	89 81       	ldd	r24, Y+1	; 0x01
    10a6:	81 33       	cpi	r24, 0x31	; 49
    10a8:	19 f0       	breq	.+6      	; 0x10b0 <priv_voidLightSystem+0x6e>
    10aa:	82 33       	cpi	r24, 0x32	; 50
    10ac:	39 f0       	breq	.+14     	; 0x10bc <priv_voidLightSystem+0x7a>
    10ae:	59 c0       	rjmp	.+178    	; 0x1162 <priv_voidLightSystem+0x120>
			case '1':
			DIO_voidSetPinValue(DIO_PORTC,DIO_PIN2,DIO_HIGH);
    10b0:	41 e0       	ldi	r20, 0x01	; 1
    10b2:	62 e0       	ldi	r22, 0x02	; 2
    10b4:	82 e0       	ldi	r24, 0x02	; 2
    10b6:	0e 94 aa 01 	call	0x354	; 0x354 <DIO_voidSetPinValue>
			break;
    10ba:	53 c0       	rjmp	.+166    	; 0x1162 <priv_voidLightSystem+0x120>
			case '2':
			DIO_voidSetPinValue(DIO_PORTC,DIO_PIN2,DIO_LOW);
    10bc:	40 e0       	ldi	r20, 0x00	; 0
    10be:	62 e0       	ldi	r22, 0x02	; 2
    10c0:	82 e0       	ldi	r24, 0x02	; 2
    10c2:	0e 94 aa 01 	call	0x354	; 0x354 <DIO_voidSetPinValue>
			break;
    10c6:	4d c0       	rjmp	.+154    	; 0x1162 <priv_voidLightSystem+0x120>
		}
		break;
		case '2':
		UART_voidRxChar(&local_u8Choice);
    10c8:	ce 01       	movw	r24, r28
    10ca:	01 96       	adiw	r24, 0x01	; 1
    10cc:	0e 94 8a 0b 	call	0x1714	; 0x1714 <UART_voidRxChar>
		UART_voidTxString("\r\n");//new line
    10d0:	85 e0       	ldi	r24, 0x05	; 5
    10d2:	91 e0       	ldi	r25, 0x01	; 1
    10d4:	0e 94 90 0b 	call	0x1720	; 0x1720 <UART_voidTxString>
		switch(local_u8Choice){
    10d8:	89 81       	ldd	r24, Y+1	; 0x01
    10da:	81 33       	cpi	r24, 0x31	; 49
    10dc:	19 f0       	breq	.+6      	; 0x10e4 <priv_voidLightSystem+0xa2>
    10de:	82 33       	cpi	r24, 0x32	; 50
    10e0:	39 f0       	breq	.+14     	; 0x10f0 <priv_voidLightSystem+0xae>
    10e2:	3f c0       	rjmp	.+126    	; 0x1162 <priv_voidLightSystem+0x120>
			case '1':
			DIO_voidSetPinValue(DIO_PORTC,DIO_PIN3,DIO_HIGH);
    10e4:	41 e0       	ldi	r20, 0x01	; 1
    10e6:	63 e0       	ldi	r22, 0x03	; 3
    10e8:	82 e0       	ldi	r24, 0x02	; 2
    10ea:	0e 94 aa 01 	call	0x354	; 0x354 <DIO_voidSetPinValue>
			break;
    10ee:	39 c0       	rjmp	.+114    	; 0x1162 <priv_voidLightSystem+0x120>
			case '2':
			DIO_voidSetPinValue(DIO_PORTC,DIO_PIN3,DIO_LOW);
    10f0:	40 e0       	ldi	r20, 0x00	; 0
    10f2:	63 e0       	ldi	r22, 0x03	; 3
    10f4:	82 e0       	ldi	r24, 0x02	; 2
    10f6:	0e 94 aa 01 	call	0x354	; 0x354 <DIO_voidSetPinValue>
			break;
    10fa:	33 c0       	rjmp	.+102    	; 0x1162 <priv_voidLightSystem+0x120>
		}
		break;
		case '3':
		UART_voidRxChar(&local_u8Choice);
    10fc:	ce 01       	movw	r24, r28
    10fe:	01 96       	adiw	r24, 0x01	; 1
    1100:	0e 94 8a 0b 	call	0x1714	; 0x1714 <UART_voidRxChar>
		UART_voidTxString("\r\n");//new line
    1104:	85 e0       	ldi	r24, 0x05	; 5
    1106:	91 e0       	ldi	r25, 0x01	; 1
    1108:	0e 94 90 0b 	call	0x1720	; 0x1720 <UART_voidTxString>
		switch(local_u8Choice){
    110c:	89 81       	ldd	r24, Y+1	; 0x01
    110e:	81 33       	cpi	r24, 0x31	; 49
    1110:	19 f0       	breq	.+6      	; 0x1118 <priv_voidLightSystem+0xd6>
    1112:	82 33       	cpi	r24, 0x32	; 50
    1114:	39 f0       	breq	.+14     	; 0x1124 <priv_voidLightSystem+0xe2>
    1116:	25 c0       	rjmp	.+74     	; 0x1162 <priv_voidLightSystem+0x120>
			case '1':
			DIO_voidSetPinValue(DIO_PORTC,DIO_PIN4,DIO_HIGH);
    1118:	41 e0       	ldi	r20, 0x01	; 1
    111a:	64 e0       	ldi	r22, 0x04	; 4
    111c:	82 e0       	ldi	r24, 0x02	; 2
    111e:	0e 94 aa 01 	call	0x354	; 0x354 <DIO_voidSetPinValue>
			break;
    1122:	1f c0       	rjmp	.+62     	; 0x1162 <priv_voidLightSystem+0x120>
			case '2':
			DIO_voidSetPinValue(DIO_PORTC,DIO_PIN4,DIO_LOW);
    1124:	40 e0       	ldi	r20, 0x00	; 0
    1126:	64 e0       	ldi	r22, 0x04	; 4
    1128:	82 e0       	ldi	r24, 0x02	; 2
    112a:	0e 94 aa 01 	call	0x354	; 0x354 <DIO_voidSetPinValue>
			break;
    112e:	19 c0       	rjmp	.+50     	; 0x1162 <priv_voidLightSystem+0x120>
		}
		break;
		case '4':
		UART_voidRxChar(&local_u8Choice);
    1130:	ce 01       	movw	r24, r28
    1132:	01 96       	adiw	r24, 0x01	; 1
    1134:	0e 94 8a 0b 	call	0x1714	; 0x1714 <UART_voidRxChar>
		UART_voidTxString("\r\n");//new line
    1138:	85 e0       	ldi	r24, 0x05	; 5
    113a:	91 e0       	ldi	r25, 0x01	; 1
    113c:	0e 94 90 0b 	call	0x1720	; 0x1720 <UART_voidTxString>
		switch(local_u8Choice){
    1140:	89 81       	ldd	r24, Y+1	; 0x01
    1142:	81 33       	cpi	r24, 0x31	; 49
    1144:	19 f0       	breq	.+6      	; 0x114c <priv_voidLightSystem+0x10a>
    1146:	82 33       	cpi	r24, 0x32	; 50
    1148:	39 f0       	breq	.+14     	; 0x1158 <priv_voidLightSystem+0x116>
    114a:	0b c0       	rjmp	.+22     	; 0x1162 <priv_voidLightSystem+0x120>
			case '1':
			DIO_voidSetPinValue(DIO_PORTC,DIO_PIN5,DIO_HIGH);
    114c:	41 e0       	ldi	r20, 0x01	; 1
    114e:	65 e0       	ldi	r22, 0x05	; 5
    1150:	82 e0       	ldi	r24, 0x02	; 2
    1152:	0e 94 aa 01 	call	0x354	; 0x354 <DIO_voidSetPinValue>
			break;
    1156:	05 c0       	rjmp	.+10     	; 0x1162 <priv_voidLightSystem+0x120>
			case '2':
			DIO_voidSetPinValue(DIO_PORTC,DIO_PIN5,DIO_LOW);
    1158:	40 e0       	ldi	r20, 0x00	; 0
    115a:	65 e0       	ldi	r22, 0x05	; 5
    115c:	82 e0       	ldi	r24, 0x02	; 2
    115e:	0e 94 aa 01 	call	0x354	; 0x354 <DIO_voidSetPinValue>
			break;
		}
		break;
	}
}
    1162:	0f 90       	pop	r0
    1164:	df 91       	pop	r29
    1166:	cf 91       	pop	r28
    1168:	08 95       	ret

0000116a <priv_voidAdminPage>:
	//if we break due to wrong attempts, lock system
		UART_voidTxString("Wrong input limit reached. System locked.\r\n");
		priv_voidLockSystem();
		
}
void priv_voidAdminPage(){
    116a:	cf 93       	push	r28
    116c:	df 93       	push	r29
    116e:	1f 92       	push	r1
    1170:	cd b7       	in	r28, 0x3d	; 61
    1172:	de b7       	in	r29, 0x3e	; 62
	u8 local_u8Choice;
	while(1){
		UART_voidTxChar('\f');//clear display
    1174:	8c e0       	ldi	r24, 0x0C	; 12
    1176:	0e 94 86 0b 	call	0x170c	; 0x170c <UART_voidTxChar>
		UART_voidTxString("1)add user 2)door 3)lights 4)exit\r\n");
    117a:	8c ea       	ldi	r24, 0xAC	; 172
    117c:	91 e0       	ldi	r25, 0x01	; 1
    117e:	0e 94 90 0b 	call	0x1720	; 0x1720 <UART_voidTxString>
		UART_voidRxChar(&local_u8Choice);
    1182:	ce 01       	movw	r24, r28
    1184:	01 96       	adiw	r24, 0x01	; 1
    1186:	0e 94 8a 0b 	call	0x1714	; 0x1714 <UART_voidRxChar>
		UART_voidTxString("\r\n");//new line
    118a:	85 e0       	ldi	r24, 0x05	; 5
    118c:	91 e0       	ldi	r25, 0x01	; 1
    118e:	0e 94 90 0b 	call	0x1720	; 0x1720 <UART_voidTxString>
		switch(local_u8Choice){
    1192:	89 81       	ldd	r24, Y+1	; 0x01
    1194:	82 33       	cpi	r24, 0x32	; 50
    1196:	61 f0       	breq	.+24     	; 0x11b0 <priv_voidAdminPage+0x46>
    1198:	18 f4       	brcc	.+6      	; 0x11a0 <priv_voidAdminPage+0x36>
    119a:	81 33       	cpi	r24, 0x31	; 49
    119c:	31 f0       	breq	.+12     	; 0x11aa <priv_voidAdminPage+0x40>
    119e:	ea cf       	rjmp	.-44     	; 0x1174 <priv_voidAdminPage+0xa>
    11a0:	83 33       	cpi	r24, 0x33	; 51
    11a2:	49 f0       	breq	.+18     	; 0x11b6 <priv_voidAdminPage+0x4c>
    11a4:	84 33       	cpi	r24, 0x34	; 52
    11a6:	51 f0       	breq	.+20     	; 0x11bc <priv_voidAdminPage+0x52>
    11a8:	e5 cf       	rjmp	.-54     	; 0x1174 <priv_voidAdminPage+0xa>
			case '1':
			priv_voidAddUser();
    11aa:	0e 94 b7 06 	call	0xd6e	; 0xd6e <priv_voidAddUser>
			break;
    11ae:	e2 cf       	rjmp	.-60     	; 0x1174 <priv_voidAdminPage+0xa>
			case '2':
			priv_voidDoorControl();
    11b0:	0e 94 f6 07 	call	0xfec	; 0xfec <priv_voidDoorControl>
			break;
    11b4:	df cf       	rjmp	.-66     	; 0x1174 <priv_voidAdminPage+0xa>
			case '3':
			priv_voidLightSystem();
    11b6:	0e 94 21 08 	call	0x1042	; 0x1042 <priv_voidLightSystem>
			break;
    11ba:	dc cf       	rjmp	.-72     	; 0x1174 <priv_voidAdminPage+0xa>
			case '4':
			return;
		}
	}
}
    11bc:	0f 90       	pop	r0
    11be:	df 91       	pop	r29
    11c0:	cf 91       	pop	r28
    11c2:	08 95       	ret

000011c4 <priv_voidAdminLogin>:
	
	priv_voidUserPage();
}


void priv_voidAdminLogin(){
    11c4:	cf 93       	push	r28
    11c6:	df 93       	push	r29
    11c8:	00 d0       	rcall	.+0      	; 0x11ca <priv_voidAdminLogin+0x6>
    11ca:	00 d0       	rcall	.+0      	; 0x11cc <priv_voidAdminLogin+0x8>
    11cc:	cd b7       	in	r28, 0x3d	; 61
    11ce:	de b7       	in	r29, 0x3e	; 62
	u8 local_u8AdminPassword [PASSWORD_LENGTH]= ADMIN_PASSWORD;
    11d0:	81 e3       	ldi	r24, 0x31	; 49
    11d2:	89 83       	std	Y+1, r24	; 0x01
    11d4:	82 e3       	ldi	r24, 0x32	; 50
    11d6:	8a 83       	std	Y+2, r24	; 0x02
    11d8:	83 e3       	ldi	r24, 0x33	; 51
    11da:	8b 83       	std	Y+3, r24	; 0x03
    11dc:	84 e3       	ldi	r24, 0x34	; 52
    11de:	8c 83       	std	Y+4, r24	; 0x04
	priv_voidCheckPassword(local_u8AdminPassword);
    11e0:	ce 01       	movw	r24, r28
    11e2:	01 96       	adiw	r24, 0x01	; 1
    11e4:	0e 94 93 07 	call	0xf26	; 0xf26 <priv_voidCheckPassword>
	priv_voidAdminPage();
    11e8:	0e 94 b5 08 	call	0x116a	; 0x116a <priv_voidAdminPage>
}
    11ec:	0f 90       	pop	r0
    11ee:	0f 90       	pop	r0
    11f0:	0f 90       	pop	r0
    11f2:	0f 90       	pop	r0
    11f4:	df 91       	pop	r29
    11f6:	cf 91       	pop	r28
    11f8:	08 95       	ret

000011fa <priv_voidUserPage>:
			case '4':
			return;
		}
	}
}
void priv_voidUserPage(){
    11fa:	cf 93       	push	r28
    11fc:	df 93       	push	r29
    11fe:	1f 92       	push	r1
    1200:	cd b7       	in	r28, 0x3d	; 61
    1202:	de b7       	in	r29, 0x3e	; 62
	u8 local_u8Choice;
	while(1){
		UART_voidTxString("1)lights 2)exit\r\n");
    1204:	80 ed       	ldi	r24, 0xD0	; 208
    1206:	91 e0       	ldi	r25, 0x01	; 1
    1208:	0e 94 90 0b 	call	0x1720	; 0x1720 <UART_voidTxString>
		UART_voidRxChar(&local_u8Choice);
    120c:	ce 01       	movw	r24, r28
    120e:	01 96       	adiw	r24, 0x01	; 1
    1210:	0e 94 8a 0b 	call	0x1714	; 0x1714 <UART_voidRxChar>
		UART_voidTxString("\r\n");//new line
    1214:	85 e0       	ldi	r24, 0x05	; 5
    1216:	91 e0       	ldi	r25, 0x01	; 1
    1218:	0e 94 90 0b 	call	0x1720	; 0x1720 <UART_voidTxString>
		switch(local_u8Choice){
    121c:	89 81       	ldd	r24, Y+1	; 0x01
    121e:	81 33       	cpi	r24, 0x31	; 49
    1220:	19 f0       	breq	.+6      	; 0x1228 <priv_voidUserPage+0x2e>
    1222:	82 33       	cpi	r24, 0x32	; 50
    1224:	21 f0       	breq	.+8      	; 0x122e <priv_voidUserPage+0x34>
    1226:	ee cf       	rjmp	.-36     	; 0x1204 <priv_voidUserPage+0xa>
			case '1':
			priv_voidLightSystem();
    1228:	0e 94 21 08 	call	0x1042	; 0x1042 <priv_voidLightSystem>
			break;
    122c:	eb cf       	rjmp	.-42     	; 0x1204 <priv_voidUserPage+0xa>
			case '2':
			return;
			break;
		}
	}
}
    122e:	0f 90       	pop	r0
    1230:	df 91       	pop	r29
    1232:	cf 91       	pop	r28
    1234:	08 95       	ret

00001236 <priv_voidUserLogin>:
	UART_voidTxString("User added!\r\n");
}



void priv_voidUserLogin(){
    1236:	ef 92       	push	r14
    1238:	ff 92       	push	r15
    123a:	0f 93       	push	r16
    123c:	1f 93       	push	r17
    123e:	cf 93       	push	r28
    1240:	df 93       	push	r29
    1242:	cd b7       	in	r28, 0x3d	; 61
    1244:	de b7       	in	r29, 0x3e	; 62
    1246:	27 97       	sbiw	r28, 0x07	; 7
    1248:	0f b6       	in	r0, 0x3f	; 63
    124a:	f8 94       	cli
    124c:	de bf       	out	0x3e, r29	; 62
    124e:	0f be       	out	0x3f, r0	; 63
    1250:	cd bf       	out	0x3d, r28	; 61
	u8 local_u8StoredUserId;
	bool userIdFound = false;
	u8 local_u8userAddress;
	
	//get number of users
	EEPROM_voidReadByte(USER_COUNTER_ADDRESSS,&local_u8NumberOfUsers);
    1252:	be 01       	movw	r22, r28
    1254:	6f 5f       	subi	r22, 0xFF	; 255
    1256:	7f 4f       	sbci	r23, 0xFF	; 255
    1258:	8f ef       	ldi	r24, 0xFF	; 255
    125a:	90 e0       	ldi	r25, 0x00	; 0
    125c:	0e 94 6c 02 	call	0x4d8	; 0x4d8 <EEPROM_voidReadByte>
	
	//if there's no users return
	if(local_u8NumberOfUsers == 0){
    1260:	89 81       	ldd	r24, Y+1	; 0x01
    1262:	81 11       	cpse	r24, r1
    1264:	0e c0       	rjmp	.+28     	; 0x1282 <priv_voidUserLogin+0x4c>
		UART_voidTxString("Add users First!\r\n");
    1266:	82 ee       	ldi	r24, 0xE2	; 226
    1268:	91 e0       	ldi	r25, 0x01	; 1
    126a:	0e 94 90 0b 	call	0x1720	; 0x1720 <UART_voidTxString>
    126e:	2f ef       	ldi	r18, 0xFF	; 255
    1270:	87 ea       	ldi	r24, 0xA7	; 167
    1272:	91 e6       	ldi	r25, 0x61	; 97
    1274:	21 50       	subi	r18, 0x01	; 1
    1276:	80 40       	sbci	r24, 0x00	; 0
    1278:	90 40       	sbci	r25, 0x00	; 0
    127a:	e1 f7       	brne	.-8      	; 0x1274 <priv_voidUserLogin+0x3e>
    127c:	00 c0       	rjmp	.+0      	; 0x127e <priv_voidUserLogin+0x48>
    127e:	00 00       	nop
    1280:	67 c0       	rjmp	.+206    	; 0x1350 <priv_voidUserLogin+0x11a>
		_delay_ms(2000);
		return;
	}
	
	//get user id
	UART_voidTxString("enter user ID:");
    1282:	85 ef       	ldi	r24, 0xF5	; 245
    1284:	91 e0       	ldi	r25, 0x01	; 1
    1286:	0e 94 90 0b 	call	0x1720	; 0x1720 <UART_voidTxString>
	for(int i=0;i<USER_ID_SIZE;++i){
    128a:	00 e0       	ldi	r16, 0x00	; 0
    128c:	10 e0       	ldi	r17, 0x00	; 0

void priv_voidUserLogin(){
	u8 local_u8NumberOfUsers;
	u8 local_u8UserPassword[PASSWORD_LENGTH];
	u8 local_u8userIdDigit;
	u8 local_u8EnteredUserId = 0;
    128e:	f1 2c       	mov	r15, r1
		return;
	}
	
	//get user id
	UART_voidTxString("enter user ID:");
	for(int i=0;i<USER_ID_SIZE;++i){
    1290:	0f c0       	rjmp	.+30     	; 0x12b0 <priv_voidUserLogin+0x7a>
		local_u8EnteredUserId*= 10;
    1292:	ff 0c       	add	r15, r15
    1294:	8f 2d       	mov	r24, r15
    1296:	88 0f       	add	r24, r24
    1298:	88 0f       	add	r24, r24
    129a:	f8 0e       	add	r15, r24
		UART_voidRxChar(&local_u8userIdDigit);
    129c:	ce 01       	movw	r24, r28
    129e:	06 96       	adiw	r24, 0x06	; 6
    12a0:	0e 94 8a 0b 	call	0x1714	; 0x1714 <UART_voidRxChar>
		local_u8userIdDigit -= '0';
    12a4:	8e 81       	ldd	r24, Y+6	; 0x06
    12a6:	80 53       	subi	r24, 0x30	; 48
    12a8:	8e 83       	std	Y+6, r24	; 0x06
		local_u8EnteredUserId += local_u8userIdDigit;
    12aa:	f8 0e       	add	r15, r24
		return;
	}
	
	//get user id
	UART_voidTxString("enter user ID:");
	for(int i=0;i<USER_ID_SIZE;++i){
    12ac:	0f 5f       	subi	r16, 0xFF	; 255
    12ae:	1f 4f       	sbci	r17, 0xFF	; 255
    12b0:	03 30       	cpi	r16, 0x03	; 3
    12b2:	11 05       	cpc	r17, r1
    12b4:	74 f3       	brlt	.-36     	; 0x1292 <priv_voidUserLogin+0x5c>
		local_u8EnteredUserId*= 10;
		UART_voidRxChar(&local_u8userIdDigit);
		local_u8userIdDigit -= '0';
		local_u8EnteredUserId += local_u8userIdDigit;
	}
	UART_voidTxString("\r\n");//new line
    12b6:	85 e0       	ldi	r24, 0x05	; 5
    12b8:	91 e0       	ldi	r25, 0x01	; 1
    12ba:	0e 94 90 0b 	call	0x1720	; 0x1720 <UART_voidTxString>
	
	//check if this user id exists
	for(int i = 0;i<local_u8NumberOfUsers*(PASSWORD_LENGTH+1);i += PASSWORD_LENGTH+1){
    12be:	00 e0       	ldi	r16, 0x00	; 0
    12c0:	10 e0       	ldi	r17, 0x00	; 0
    12c2:	0e c0       	rjmp	.+28     	; 0x12e0 <priv_voidUserLogin+0xaa>
		EEPROM_voidReadByte(i,&local_u8StoredUserId);
    12c4:	be 01       	movw	r22, r28
    12c6:	69 5f       	subi	r22, 0xF9	; 249
    12c8:	7f 4f       	sbci	r23, 0xFF	; 255
    12ca:	c8 01       	movw	r24, r16
    12cc:	0e 94 6c 02 	call	0x4d8	; 0x4d8 <EEPROM_voidReadByte>
		if(local_u8StoredUserId == local_u8EnteredUserId){
    12d0:	8f 81       	ldd	r24, Y+7	; 0x07
    12d2:	f8 12       	cpse	r15, r24
    12d4:	03 c0       	rjmp	.+6      	; 0x12dc <priv_voidUserLogin+0xa6>
			userIdFound = true;
			local_u8userAddress = i;
    12d6:	e0 2e       	mov	r14, r16
	
	//check if this user id exists
	for(int i = 0;i<local_u8NumberOfUsers*(PASSWORD_LENGTH+1);i += PASSWORD_LENGTH+1){
		EEPROM_voidReadByte(i,&local_u8StoredUserId);
		if(local_u8StoredUserId == local_u8EnteredUserId){
			userIdFound = true;
    12d8:	81 e0       	ldi	r24, 0x01	; 1
			local_u8userAddress = i;
			break;
    12da:	0f c0       	rjmp	.+30     	; 0x12fa <priv_voidUserLogin+0xc4>
		local_u8EnteredUserId += local_u8userIdDigit;
	}
	UART_voidTxString("\r\n");//new line
	
	//check if this user id exists
	for(int i = 0;i<local_u8NumberOfUsers*(PASSWORD_LENGTH+1);i += PASSWORD_LENGTH+1){
    12dc:	0b 5f       	subi	r16, 0xFB	; 251
    12de:	1f 4f       	sbci	r17, 0xFF	; 255
    12e0:	89 81       	ldd	r24, Y+1	; 0x01
    12e2:	90 e0       	ldi	r25, 0x00	; 0
    12e4:	9c 01       	movw	r18, r24
    12e6:	22 0f       	add	r18, r18
    12e8:	33 1f       	adc	r19, r19
    12ea:	22 0f       	add	r18, r18
    12ec:	33 1f       	adc	r19, r19
    12ee:	82 0f       	add	r24, r18
    12f0:	93 1f       	adc	r25, r19
    12f2:	08 17       	cp	r16, r24
    12f4:	19 07       	cpc	r17, r25
    12f6:	34 f3       	brlt	.-52     	; 0x12c4 <priv_voidUserLogin+0x8e>
	u8 local_u8NumberOfUsers;
	u8 local_u8UserPassword[PASSWORD_LENGTH];
	u8 local_u8userIdDigit;
	u8 local_u8EnteredUserId = 0;
	u8 local_u8StoredUserId;
	bool userIdFound = false;
    12f8:	80 e0       	ldi	r24, 0x00	; 0
			local_u8userAddress = i;
			break;
		}	
	}
	
	if(!userIdFound){
    12fa:	81 11       	cpse	r24, r1
    12fc:	1e c0       	rjmp	.+60     	; 0x133a <priv_voidUserLogin+0x104>
		UART_voidTxString("user id not found\r\n");
    12fe:	84 e0       	ldi	r24, 0x04	; 4
    1300:	92 e0       	ldi	r25, 0x02	; 2
    1302:	0e 94 90 0b 	call	0x1720	; 0x1720 <UART_voidTxString>
    1306:	2f ef       	ldi	r18, 0xFF	; 255
    1308:	87 ea       	ldi	r24, 0xA7	; 167
    130a:	91 e6       	ldi	r25, 0x61	; 97
    130c:	21 50       	subi	r18, 0x01	; 1
    130e:	80 40       	sbci	r24, 0x00	; 0
    1310:	90 40       	sbci	r25, 0x00	; 0
    1312:	e1 f7       	brne	.-8      	; 0x130c <priv_voidUserLogin+0xd6>
    1314:	00 c0       	rjmp	.+0      	; 0x1316 <priv_voidUserLogin+0xe0>
    1316:	00 00       	nop
    1318:	1b c0       	rjmp	.+54     	; 0x1350 <priv_voidUserLogin+0x11a>
		return;
	}
	
	//get user password form memory
	for(int i = 0;i<PASSWORD_LENGTH;++i){
		EEPROM_voidReadByte(local_u8userAddress+1+i,&local_u8UserPassword[i]);
    131a:	8e 2d       	mov	r24, r14
    131c:	90 e0       	ldi	r25, 0x00	; 0
    131e:	01 96       	adiw	r24, 0x01	; 1
    1320:	62 e0       	ldi	r22, 0x02	; 2
    1322:	70 e0       	ldi	r23, 0x00	; 0
    1324:	6c 0f       	add	r22, r28
    1326:	7d 1f       	adc	r23, r29
    1328:	60 0f       	add	r22, r16
    132a:	71 1f       	adc	r23, r17
    132c:	80 0f       	add	r24, r16
    132e:	91 1f       	adc	r25, r17
    1330:	0e 94 6c 02 	call	0x4d8	; 0x4d8 <EEPROM_voidReadByte>
		_delay_ms(2000);
		return;
	}
	
	//get user password form memory
	for(int i = 0;i<PASSWORD_LENGTH;++i){
    1334:	0f 5f       	subi	r16, 0xFF	; 255
    1336:	1f 4f       	sbci	r17, 0xFF	; 255
    1338:	02 c0       	rjmp	.+4      	; 0x133e <priv_voidUserLogin+0x108>
    133a:	00 e0       	ldi	r16, 0x00	; 0
    133c:	10 e0       	ldi	r17, 0x00	; 0
    133e:	04 30       	cpi	r16, 0x04	; 4
    1340:	11 05       	cpc	r17, r1
    1342:	5c f3       	brlt	.-42     	; 0x131a <priv_voidUserLogin+0xe4>
		EEPROM_voidReadByte(local_u8userAddress+1+i,&local_u8UserPassword[i]);
	}
	
	//check password
	priv_voidCheckPassword(local_u8UserPassword);
    1344:	ce 01       	movw	r24, r28
    1346:	02 96       	adiw	r24, 0x02	; 2
    1348:	0e 94 93 07 	call	0xf26	; 0xf26 <priv_voidCheckPassword>
	
	priv_voidUserPage();
    134c:	0e 94 fd 08 	call	0x11fa	; 0x11fa <priv_voidUserPage>
}
    1350:	27 96       	adiw	r28, 0x07	; 7
    1352:	0f b6       	in	r0, 0x3f	; 63
    1354:	f8 94       	cli
    1356:	de bf       	out	0x3e, r29	; 62
    1358:	0f be       	out	0x3f, r0	; 63
    135a:	cd bf       	out	0x3d, r28	; 61
    135c:	df 91       	pop	r29
    135e:	cf 91       	pop	r28
    1360:	1f 91       	pop	r17
    1362:	0f 91       	pop	r16
    1364:	ff 90       	pop	r15
    1366:	ef 90       	pop	r14
    1368:	08 95       	ret

0000136a <SmartHome_voidTerminalLoginMainMenu>:
	DIO_voidSetPinDirection(DIO_PORTC,DIO_PIN2,DIO_OUTPUT);
	DIO_voidSetPinDirection(DIO_PORTC,DIO_PIN3,DIO_OUTPUT);
	DIO_voidSetPinDirection(DIO_PORTC,DIO_PIN4,DIO_OUTPUT);
	DIO_voidSetPinDirection(DIO_PORTC,DIO_PIN5,DIO_OUTPUT);
}
void SmartHome_voidTerminalLoginMainMenu(){
    136a:	cf 93       	push	r28
    136c:	df 93       	push	r29
    136e:	1f 92       	push	r1
    1370:	cd b7       	in	r28, 0x3d	; 61
    1372:	de b7       	in	r29, 0x3e	; 62
	u8 local_u8Choice;
	UART_voidTxChar('\f');//clear display
    1374:	8c e0       	ldi	r24, 0x0C	; 12
    1376:	0e 94 86 0b 	call	0x170c	; 0x170c <UART_voidTxChar>
	UART_voidTxString("Main Login Page\r\n");
    137a:	88 e1       	ldi	r24, 0x18	; 24
    137c:	92 e0       	ldi	r25, 0x02	; 2
    137e:	0e 94 90 0b 	call	0x1720	; 0x1720 <UART_voidTxString>
	UART_voidTxString("1)Admin login   2)User login\r\n");
    1382:	8a e2       	ldi	r24, 0x2A	; 42
    1384:	92 e0       	ldi	r25, 0x02	; 2
    1386:	0e 94 90 0b 	call	0x1720	; 0x1720 <UART_voidTxString>
	UART_voidRxChar(&local_u8Choice);
    138a:	ce 01       	movw	r24, r28
    138c:	01 96       	adiw	r24, 0x01	; 1
    138e:	0e 94 8a 0b 	call	0x1714	; 0x1714 <UART_voidRxChar>
	UART_voidTxString("\r\n");//new line
    1392:	85 e0       	ldi	r24, 0x05	; 5
    1394:	91 e0       	ldi	r25, 0x01	; 1
    1396:	0e 94 90 0b 	call	0x1720	; 0x1720 <UART_voidTxString>
	switch(local_u8Choice){
    139a:	89 81       	ldd	r24, Y+1	; 0x01
    139c:	81 33       	cpi	r24, 0x31	; 49
    139e:	19 f0       	breq	.+6      	; 0x13a6 <SmartHome_voidTerminalLoginMainMenu+0x3c>
    13a0:	82 33       	cpi	r24, 0x32	; 50
    13a2:	59 f0       	breq	.+22     	; 0x13ba <SmartHome_voidTerminalLoginMainMenu+0x50>
    13a4:	14 c0       	rjmp	.+40     	; 0x13ce <SmartHome_voidTerminalLoginMainMenu+0x64>
		case '1':
		UART_voidTxChar('\f');//clear display
    13a6:	8c e0       	ldi	r24, 0x0C	; 12
    13a8:	0e 94 86 0b 	call	0x170c	; 0x170c <UART_voidTxChar>
		UART_voidTxString("Admin login\r\n");
    13ac:	89 e4       	ldi	r24, 0x49	; 73
    13ae:	92 e0       	ldi	r25, 0x02	; 2
    13b0:	0e 94 90 0b 	call	0x1720	; 0x1720 <UART_voidTxString>
		priv_voidAdminLogin();
    13b4:	0e 94 e2 08 	call	0x11c4	; 0x11c4 <priv_voidAdminLogin>
		break;
    13b8:	17 c0       	rjmp	.+46     	; 0x13e8 <SmartHome_voidTerminalLoginMainMenu+0x7e>
		case '2':
		UART_voidTxChar('\f');//clear display
    13ba:	8c e0       	ldi	r24, 0x0C	; 12
    13bc:	0e 94 86 0b 	call	0x170c	; 0x170c <UART_voidTxChar>
		UART_voidTxString("user login\r\n");
    13c0:	87 e5       	ldi	r24, 0x57	; 87
    13c2:	92 e0       	ldi	r25, 0x02	; 2
    13c4:	0e 94 90 0b 	call	0x1720	; 0x1720 <UART_voidTxString>
		priv_voidUserLogin();
    13c8:	0e 94 1b 09 	call	0x1236	; 0x1236 <priv_voidUserLogin>
		break;
    13cc:	0d c0       	rjmp	.+26     	; 0x13e8 <SmartHome_voidTerminalLoginMainMenu+0x7e>
		default:
			UART_voidTxString("invalid choice!\r\n");
    13ce:	84 e6       	ldi	r24, 0x64	; 100
    13d0:	92 e0       	ldi	r25, 0x02	; 2
    13d2:	0e 94 90 0b 	call	0x1720	; 0x1720 <UART_voidTxString>
    13d6:	2f ef       	ldi	r18, 0xFF	; 255
    13d8:	87 ea       	ldi	r24, 0xA7	; 167
    13da:	91 e6       	ldi	r25, 0x61	; 97
    13dc:	21 50       	subi	r18, 0x01	; 1
    13de:	80 40       	sbci	r24, 0x00	; 0
    13e0:	90 40       	sbci	r25, 0x00	; 0
    13e2:	e1 f7       	brne	.-8      	; 0x13dc <SmartHome_voidTerminalLoginMainMenu+0x72>
    13e4:	00 c0       	rjmp	.+0      	; 0x13e6 <SmartHome_voidTerminalLoginMainMenu+0x7c>
    13e6:	00 00       	nop
			_delay_ms(2000);
		}
}
    13e8:	0f 90       	pop	r0
    13ea:	df 91       	pop	r29
    13ec:	cf 91       	pop	r28
    13ee:	08 95       	ret

000013f0 <priv_voidLCDLightSystemControl>:
		return;
	}
}


void priv_voidLCDLightSystemControl(){
    13f0:	cf 93       	push	r28
    13f2:	df 93       	push	r29
    13f4:	1f 92       	push	r1
    13f6:	cd b7       	in	r28, 0x3d	; 61
    13f8:	de b7       	in	r29, 0x3e	; 62
	u8 local_u8Choice = KEY_NOT_PRESSED;
    13fa:	19 82       	std	Y+1, r1	; 0x01
	
	LCD_voidClearDisplay();
    13fc:	0e 94 2c 05 	call	0xa58	; 0xa58 <LCD_voidClearDisplay>
	LCD_voidDisplayString("1)lamp1 2)lamp2\r\n");
    1400:	8b e7       	ldi	r24, 0x7B	; 123
    1402:	91 e0       	ldi	r25, 0x01	; 1
    1404:	0e 94 13 05 	call	0xa26	; 0xa26 <LCD_voidDisplayString>
	LCD_voidMoveToSecondLine();
    1408:	0e 94 28 05 	call	0xa50	; 0xa50 <LCD_voidMoveToSecondLine>
	LCD_voidDisplayString("3)lamp3 4)lamp4\r\n");
    140c:	8d e8       	ldi	r24, 0x8D	; 141
    140e:	91 e0       	ldi	r25, 0x01	; 1
    1410:	0e 94 13 05 	call	0xa26	; 0xa26 <LCD_voidDisplayString>
	
	while(local_u8Choice == KEY_NOT_PRESSED){
    1414:	04 c0       	rjmp	.+8      	; 0x141e <priv_voidLCDLightSystemControl+0x2e>
		KEYPAD_voidGetPressedKey(&local_u8Choice);
    1416:	ce 01       	movw	r24, r28
    1418:	01 96       	adiw	r24, 0x01	; 1
    141a:	0e 94 c0 03 	call	0x780	; 0x780 <KEYPAD_voidGetPressedKey>
	LCD_voidClearDisplay();
	LCD_voidDisplayString("1)lamp1 2)lamp2\r\n");
	LCD_voidMoveToSecondLine();
	LCD_voidDisplayString("3)lamp3 4)lamp4\r\n");
	
	while(local_u8Choice == KEY_NOT_PRESSED){
    141e:	89 81       	ldd	r24, Y+1	; 0x01
    1420:	88 23       	and	r24, r24
    1422:	c9 f3       	breq	.-14     	; 0x1416 <priv_voidLCDLightSystemControl+0x26>
		KEYPAD_voidGetPressedKey(&local_u8Choice);
	}
	LCD_voidClearDisplay();
    1424:	0e 94 2c 05 	call	0xa58	; 0xa58 <LCD_voidClearDisplay>
	LCD_voidDisplayString("1)on 2)off\r\n");
    1428:	8f e9       	ldi	r24, 0x9F	; 159
    142a:	91 e0       	ldi	r25, 0x01	; 1
    142c:	0e 94 13 05 	call	0xa26	; 0xa26 <LCD_voidDisplayString>
	switch(local_u8Choice){
    1430:	89 81       	ldd	r24, Y+1	; 0x01
    1432:	82 33       	cpi	r24, 0x32	; 50
    1434:	21 f1       	breq	.+72     	; 0x147e <priv_voidLCDLightSystemControl+0x8e>
    1436:	18 f4       	brcc	.+6      	; 0x143e <priv_voidLCDLightSystemControl+0x4e>
    1438:	81 33       	cpi	r24, 0x31	; 49
    143a:	39 f0       	breq	.+14     	; 0x144a <priv_voidLCDLightSystemControl+0x5a>
    143c:	6d c0       	rjmp	.+218    	; 0x1518 <priv_voidLCDLightSystemControl+0x128>
    143e:	83 33       	cpi	r24, 0x33	; 51
    1440:	c1 f1       	breq	.+112    	; 0x14b2 <priv_voidLCDLightSystemControl+0xc2>
    1442:	84 33       	cpi	r24, 0x34	; 52
    1444:	09 f4       	brne	.+2      	; 0x1448 <priv_voidLCDLightSystemControl+0x58>
    1446:	4f c0       	rjmp	.+158    	; 0x14e6 <priv_voidLCDLightSystemControl+0xf6>
    1448:	67 c0       	rjmp	.+206    	; 0x1518 <priv_voidLCDLightSystemControl+0x128>
		case '1':
		local_u8Choice = KEY_NOT_PRESSED;
    144a:	19 82       	std	Y+1, r1	; 0x01
		while(local_u8Choice == KEY_NOT_PRESSED){
    144c:	04 c0       	rjmp	.+8      	; 0x1456 <priv_voidLCDLightSystemControl+0x66>
			KEYPAD_voidGetPressedKey(&local_u8Choice);
    144e:	ce 01       	movw	r24, r28
    1450:	01 96       	adiw	r24, 0x01	; 1
    1452:	0e 94 c0 03 	call	0x780	; 0x780 <KEYPAD_voidGetPressedKey>
	LCD_voidClearDisplay();
	LCD_voidDisplayString("1)on 2)off\r\n");
	switch(local_u8Choice){
		case '1':
		local_u8Choice = KEY_NOT_PRESSED;
		while(local_u8Choice == KEY_NOT_PRESSED){
    1456:	89 81       	ldd	r24, Y+1	; 0x01
    1458:	88 23       	and	r24, r24
    145a:	c9 f3       	breq	.-14     	; 0x144e <priv_voidLCDLightSystemControl+0x5e>
			KEYPAD_voidGetPressedKey(&local_u8Choice);
		}
		switch(local_u8Choice){
    145c:	81 33       	cpi	r24, 0x31	; 49
    145e:	19 f0       	breq	.+6      	; 0x1466 <priv_voidLCDLightSystemControl+0x76>
    1460:	82 33       	cpi	r24, 0x32	; 50
    1462:	39 f0       	breq	.+14     	; 0x1472 <priv_voidLCDLightSystemControl+0x82>
    1464:	59 c0       	rjmp	.+178    	; 0x1518 <priv_voidLCDLightSystemControl+0x128>
			case '1':
			DIO_voidSetPinValue(DIO_PORTC,DIO_PIN2,DIO_HIGH);
    1466:	41 e0       	ldi	r20, 0x01	; 1
    1468:	62 e0       	ldi	r22, 0x02	; 2
    146a:	82 e0       	ldi	r24, 0x02	; 2
    146c:	0e 94 aa 01 	call	0x354	; 0x354 <DIO_voidSetPinValue>
			break;
    1470:	53 c0       	rjmp	.+166    	; 0x1518 <priv_voidLCDLightSystemControl+0x128>
			case '2':
			DIO_voidSetPinValue(DIO_PORTC,DIO_PIN2,DIO_LOW);
    1472:	40 e0       	ldi	r20, 0x00	; 0
    1474:	62 e0       	ldi	r22, 0x02	; 2
    1476:	82 e0       	ldi	r24, 0x02	; 2
    1478:	0e 94 aa 01 	call	0x354	; 0x354 <DIO_voidSetPinValue>
			break;
    147c:	4d c0       	rjmp	.+154    	; 0x1518 <priv_voidLCDLightSystemControl+0x128>
		}
		break;
		case '2':
		local_u8Choice = KEY_NOT_PRESSED;
    147e:	19 82       	std	Y+1, r1	; 0x01
		while(local_u8Choice == KEY_NOT_PRESSED){
    1480:	04 c0       	rjmp	.+8      	; 0x148a <priv_voidLCDLightSystemControl+0x9a>
			KEYPAD_voidGetPressedKey(&local_u8Choice);
    1482:	ce 01       	movw	r24, r28
    1484:	01 96       	adiw	r24, 0x01	; 1
    1486:	0e 94 c0 03 	call	0x780	; 0x780 <KEYPAD_voidGetPressedKey>
			break;
		}
		break;
		case '2':
		local_u8Choice = KEY_NOT_PRESSED;
		while(local_u8Choice == KEY_NOT_PRESSED){
    148a:	89 81       	ldd	r24, Y+1	; 0x01
    148c:	88 23       	and	r24, r24
    148e:	c9 f3       	breq	.-14     	; 0x1482 <priv_voidLCDLightSystemControl+0x92>
			KEYPAD_voidGetPressedKey(&local_u8Choice);
		}
		switch(local_u8Choice){
    1490:	81 33       	cpi	r24, 0x31	; 49
    1492:	19 f0       	breq	.+6      	; 0x149a <priv_voidLCDLightSystemControl+0xaa>
    1494:	82 33       	cpi	r24, 0x32	; 50
    1496:	39 f0       	breq	.+14     	; 0x14a6 <priv_voidLCDLightSystemControl+0xb6>
    1498:	3f c0       	rjmp	.+126    	; 0x1518 <priv_voidLCDLightSystemControl+0x128>
			case '1':
			DIO_voidSetPinValue(DIO_PORTC,DIO_PIN3,DIO_HIGH);
    149a:	41 e0       	ldi	r20, 0x01	; 1
    149c:	63 e0       	ldi	r22, 0x03	; 3
    149e:	82 e0       	ldi	r24, 0x02	; 2
    14a0:	0e 94 aa 01 	call	0x354	; 0x354 <DIO_voidSetPinValue>
			break;
    14a4:	39 c0       	rjmp	.+114    	; 0x1518 <priv_voidLCDLightSystemControl+0x128>
			case '2':
			DIO_voidSetPinValue(DIO_PORTC,DIO_PIN3,DIO_LOW);
    14a6:	40 e0       	ldi	r20, 0x00	; 0
    14a8:	63 e0       	ldi	r22, 0x03	; 3
    14aa:	82 e0       	ldi	r24, 0x02	; 2
    14ac:	0e 94 aa 01 	call	0x354	; 0x354 <DIO_voidSetPinValue>
			break;
    14b0:	33 c0       	rjmp	.+102    	; 0x1518 <priv_voidLCDLightSystemControl+0x128>
		}
		break;
		case '3':
		local_u8Choice = KEY_NOT_PRESSED;
    14b2:	19 82       	std	Y+1, r1	; 0x01
		while(local_u8Choice == KEY_NOT_PRESSED){
    14b4:	04 c0       	rjmp	.+8      	; 0x14be <priv_voidLCDLightSystemControl+0xce>
			KEYPAD_voidGetPressedKey(&local_u8Choice);
    14b6:	ce 01       	movw	r24, r28
    14b8:	01 96       	adiw	r24, 0x01	; 1
    14ba:	0e 94 c0 03 	call	0x780	; 0x780 <KEYPAD_voidGetPressedKey>
			break;
		}
		break;
		case '3':
		local_u8Choice = KEY_NOT_PRESSED;
		while(local_u8Choice == KEY_NOT_PRESSED){
    14be:	89 81       	ldd	r24, Y+1	; 0x01
    14c0:	88 23       	and	r24, r24
    14c2:	c9 f3       	breq	.-14     	; 0x14b6 <priv_voidLCDLightSystemControl+0xc6>
			KEYPAD_voidGetPressedKey(&local_u8Choice);
		}
		switch(local_u8Choice){
    14c4:	81 33       	cpi	r24, 0x31	; 49
    14c6:	19 f0       	breq	.+6      	; 0x14ce <priv_voidLCDLightSystemControl+0xde>
    14c8:	82 33       	cpi	r24, 0x32	; 50
    14ca:	39 f0       	breq	.+14     	; 0x14da <priv_voidLCDLightSystemControl+0xea>
    14cc:	25 c0       	rjmp	.+74     	; 0x1518 <priv_voidLCDLightSystemControl+0x128>
			case '1':
			DIO_voidSetPinValue(DIO_PORTC,DIO_PIN4,DIO_HIGH);
    14ce:	41 e0       	ldi	r20, 0x01	; 1
    14d0:	64 e0       	ldi	r22, 0x04	; 4
    14d2:	82 e0       	ldi	r24, 0x02	; 2
    14d4:	0e 94 aa 01 	call	0x354	; 0x354 <DIO_voidSetPinValue>
			break;
    14d8:	1f c0       	rjmp	.+62     	; 0x1518 <priv_voidLCDLightSystemControl+0x128>
			case '2':
			DIO_voidSetPinValue(DIO_PORTC,DIO_PIN4,DIO_LOW);
    14da:	40 e0       	ldi	r20, 0x00	; 0
    14dc:	64 e0       	ldi	r22, 0x04	; 4
    14de:	82 e0       	ldi	r24, 0x02	; 2
    14e0:	0e 94 aa 01 	call	0x354	; 0x354 <DIO_voidSetPinValue>
			break;
    14e4:	19 c0       	rjmp	.+50     	; 0x1518 <priv_voidLCDLightSystemControl+0x128>
		}
		break;
		case '4':
		local_u8Choice = KEY_NOT_PRESSED;
    14e6:	19 82       	std	Y+1, r1	; 0x01
		while(local_u8Choice == KEY_NOT_PRESSED){
    14e8:	04 c0       	rjmp	.+8      	; 0x14f2 <priv_voidLCDLightSystemControl+0x102>
			KEYPAD_voidGetPressedKey(&local_u8Choice);
    14ea:	ce 01       	movw	r24, r28
    14ec:	01 96       	adiw	r24, 0x01	; 1
    14ee:	0e 94 c0 03 	call	0x780	; 0x780 <KEYPAD_voidGetPressedKey>
			break;
		}
		break;
		case '4':
		local_u8Choice = KEY_NOT_PRESSED;
		while(local_u8Choice == KEY_NOT_PRESSED){
    14f2:	89 81       	ldd	r24, Y+1	; 0x01
    14f4:	88 23       	and	r24, r24
    14f6:	c9 f3       	breq	.-14     	; 0x14ea <priv_voidLCDLightSystemControl+0xfa>
			KEYPAD_voidGetPressedKey(&local_u8Choice);
		}
		switch(local_u8Choice){
    14f8:	81 33       	cpi	r24, 0x31	; 49
    14fa:	19 f0       	breq	.+6      	; 0x1502 <priv_voidLCDLightSystemControl+0x112>
    14fc:	82 33       	cpi	r24, 0x32	; 50
    14fe:	39 f0       	breq	.+14     	; 0x150e <priv_voidLCDLightSystemControl+0x11e>
    1500:	0b c0       	rjmp	.+22     	; 0x1518 <priv_voidLCDLightSystemControl+0x128>
			case '1':
			DIO_voidSetPinValue(DIO_PORTC,DIO_PIN5,DIO_HIGH);
    1502:	41 e0       	ldi	r20, 0x01	; 1
    1504:	65 e0       	ldi	r22, 0x05	; 5
    1506:	82 e0       	ldi	r24, 0x02	; 2
    1508:	0e 94 aa 01 	call	0x354	; 0x354 <DIO_voidSetPinValue>
			break;
    150c:	05 c0       	rjmp	.+10     	; 0x1518 <priv_voidLCDLightSystemControl+0x128>
			case '2':
			DIO_voidSetPinValue(DIO_PORTC,DIO_PIN5,DIO_LOW);
    150e:	40 e0       	ldi	r20, 0x00	; 0
    1510:	65 e0       	ldi	r22, 0x05	; 5
    1512:	82 e0       	ldi	r24, 0x02	; 2
    1514:	0e 94 aa 01 	call	0x354	; 0x354 <DIO_voidSetPinValue>
			break;
		}
		break;
	}
}
    1518:	0f 90       	pop	r0
    151a:	df 91       	pop	r29
    151c:	cf 91       	pop	r28
    151e:	08 95       	ret

00001520 <priv_LCDcontrolMainTerminal>:
		DIO_voidSetPinValue(DIO_PORTB,DIO_PIN0,DIO_HIGH);
		PWM2_voidStop();
	}
}

void priv_LCDcontrolMainTerminal(){
    1520:	cf 93       	push	r28
    1522:	df 93       	push	r29
    1524:	1f 92       	push	r1
    1526:	cd b7       	in	r28, 0x3d	; 61
    1528:	de b7       	in	r29, 0x3e	; 62
	LCD_voidClearDisplay();
    152a:	0e 94 2c 05 	call	0xa58	; 0xa58 <LCD_voidClearDisplay>
	u8 key = KEY_NOT_PRESSED;
    152e:	19 82       	std	Y+1, r1	; 0x01
	LCD_voidDisplayString("1)lights 0)exit");
    1530:	86 e7       	ldi	r24, 0x76	; 118
    1532:	92 e0       	ldi	r25, 0x02	; 2
    1534:	0e 94 13 05 	call	0xa26	; 0xa26 <LCD_voidDisplayString>
	while(key == KEY_NOT_PRESSED){
    1538:	04 c0       	rjmp	.+8      	; 0x1542 <priv_LCDcontrolMainTerminal+0x22>
		KEYPAD_voidGetPressedKey(&key);
    153a:	ce 01       	movw	r24, r28
    153c:	01 96       	adiw	r24, 0x01	; 1
    153e:	0e 94 c0 03 	call	0x780	; 0x780 <KEYPAD_voidGetPressedKey>

void priv_LCDcontrolMainTerminal(){
	LCD_voidClearDisplay();
	u8 key = KEY_NOT_PRESSED;
	LCD_voidDisplayString("1)lights 0)exit");
	while(key == KEY_NOT_PRESSED){
    1542:	89 81       	ldd	r24, Y+1	; 0x01
    1544:	88 23       	and	r24, r24
    1546:	c9 f3       	breq	.-14     	; 0x153a <priv_LCDcontrolMainTerminal+0x1a>
		KEYPAD_voidGetPressedKey(&key);
	}
	switch(key){
    1548:	80 33       	cpi	r24, 0x30	; 48
    154a:	21 f0       	breq	.+8      	; 0x1554 <priv_LCDcontrolMainTerminal+0x34>
    154c:	81 33       	cpi	r24, 0x31	; 49
    154e:	11 f4       	brne	.+4      	; 0x1554 <priv_LCDcontrolMainTerminal+0x34>
		case '1':
		priv_voidLCDLightSystemControl();
    1550:	0e 94 f8 09 	call	0x13f0	; 0x13f0 <priv_voidLCDLightSystemControl>
		break;
		case '0':
		return;
	}
}
    1554:	0f 90       	pop	r0
    1556:	df 91       	pop	r29
    1558:	cf 91       	pop	r28
    155a:	08 95       	ret

0000155c <__vector_1>:
}


void __vector_1 (void) __attribute__((signal));
void __vector_1 (void)
{
    155c:	1f 92       	push	r1
    155e:	0f 92       	push	r0
    1560:	0f b6       	in	r0, 0x3f	; 63
    1562:	0f 92       	push	r0
    1564:	11 24       	eor	r1, r1
    1566:	2f 93       	push	r18
    1568:	3f 93       	push	r19
    156a:	4f 93       	push	r20
    156c:	5f 93       	push	r21
    156e:	6f 93       	push	r22
    1570:	7f 93       	push	r23
    1572:	8f 93       	push	r24
    1574:	9f 93       	push	r25
    1576:	af 93       	push	r26
    1578:	bf 93       	push	r27
    157a:	ef 93       	push	r30
    157c:	ff 93       	push	r31
	priv_LCDcontrolMainTerminal();
    157e:	0e 94 90 0a 	call	0x1520	; 0x1520 <priv_LCDcontrolMainTerminal>
    1582:	ff 91       	pop	r31
    1584:	ef 91       	pop	r30
    1586:	bf 91       	pop	r27
    1588:	af 91       	pop	r26
    158a:	9f 91       	pop	r25
    158c:	8f 91       	pop	r24
    158e:	7f 91       	pop	r23
    1590:	6f 91       	pop	r22
    1592:	5f 91       	pop	r21
    1594:	4f 91       	pop	r20
    1596:	3f 91       	pop	r19
    1598:	2f 91       	pop	r18
    159a:	0f 90       	pop	r0
    159c:	0f be       	out	0x3f, r0	; 63
    159e:	0f 90       	pop	r0
    15a0:	1f 90       	pop	r1
    15a2:	18 95       	reti

000015a4 <TIMER0_voidInit>:
	
}
void TIMER0_voidStopTimer(void){
	CLEAR_BIT(TCCR0_REGISTER,CS00_BIT);
	CLEAR_BIT(TCCR0_REGISTER,CS01_BIT);
	CLEAR_BIT(TCCR0_REGISTER,CS02_BIT);
    15a4:	88 23       	and	r24, r24
    15a6:	19 f0       	breq	.+6      	; 0x15ae <TIMER0_voidInit+0xa>
    15a8:	81 30       	cpi	r24, 0x01	; 1
    15aa:	61 f0       	breq	.+24     	; 0x15c4 <TIMER0_voidInit+0x20>
    15ac:	08 95       	ret
    15ae:	83 b7       	in	r24, 0x33	; 51
    15b0:	8f 7b       	andi	r24, 0xBF	; 191
    15b2:	83 bf       	out	0x33, r24	; 51
    15b4:	83 b7       	in	r24, 0x33	; 51
    15b6:	87 7f       	andi	r24, 0xF7	; 247
    15b8:	83 bf       	out	0x33, r24	; 51
    15ba:	12 be       	out	0x32, r1	; 50
    15bc:	89 b7       	in	r24, 0x39	; 57
    15be:	81 60       	ori	r24, 0x01	; 1
    15c0:	89 bf       	out	0x39, r24	; 57
    15c2:	08 95       	ret
    15c4:	83 b7       	in	r24, 0x33	; 51
    15c6:	8f 7b       	andi	r24, 0xBF	; 191
    15c8:	83 bf       	out	0x33, r24	; 51
    15ca:	83 b7       	in	r24, 0x33	; 51
    15cc:	88 60       	ori	r24, 0x08	; 8
    15ce:	83 bf       	out	0x33, r24	; 51
    15d0:	89 ef       	ldi	r24, 0xF9	; 249
    15d2:	8c bf       	out	0x3c, r24	; 60
    15d4:	89 b7       	in	r24, 0x39	; 57
    15d6:	82 60       	ori	r24, 0x02	; 2
    15d8:	89 bf       	out	0x39, r24	; 57
    15da:	08 95       	ret

000015dc <TIMER0_voidStartTimer>:
    15dc:	83 b7       	in	r24, 0x33	; 51
    15de:	81 60       	ori	r24, 0x01	; 1
    15e0:	83 bf       	out	0x33, r24	; 51
    15e2:	83 b7       	in	r24, 0x33	; 51
    15e4:	82 60       	ori	r24, 0x02	; 2
    15e6:	83 bf       	out	0x33, r24	; 51
    15e8:	83 b7       	in	r24, 0x33	; 51
    15ea:	8b 7f       	andi	r24, 0xFB	; 251
    15ec:	83 bf       	out	0x33, r24	; 51
    15ee:	08 95       	ret

000015f0 <TIMER0_voidSetCallBackFunction>:
}
void TIMER0_voidSetCallBackFunction (void(*pf)(void)){
	priv_pfCallBackFunction = pf;
    15f0:	90 93 8b 02 	sts	0x028B, r25	; 0x80028b <priv_pfCallBackFunction+0x1>
    15f4:	80 93 8a 02 	sts	0x028A, r24	; 0x80028a <priv_pfCallBackFunction>
    15f8:	08 95       	ret

000015fa <__vector_11>:
}

void __vector_11 (void) __attribute__ ((signal));
void __vector_11 (void){
    15fa:	1f 92       	push	r1
    15fc:	0f 92       	push	r0
    15fe:	0f b6       	in	r0, 0x3f	; 63
    1600:	0f 92       	push	r0
    1602:	11 24       	eor	r1, r1
    1604:	2f 93       	push	r18
    1606:	3f 93       	push	r19
    1608:	4f 93       	push	r20
    160a:	5f 93       	push	r21
    160c:	6f 93       	push	r22
    160e:	7f 93       	push	r23
    1610:	8f 93       	push	r24
    1612:	9f 93       	push	r25
    1614:	af 93       	push	r26
    1616:	bf 93       	push	r27
    1618:	ef 93       	push	r30
    161a:	ff 93       	push	r31
	static u16 local_u16OverflowCounter = 0;
	++local_u16OverflowCounter;
    161c:	80 91 88 02 	lds	r24, 0x0288	; 0x800288 <local_u16OverflowCounter.1626>
    1620:	90 91 89 02 	lds	r25, 0x0289	; 0x800289 <local_u16OverflowCounter.1626+0x1>
    1624:	01 96       	adiw	r24, 0x01	; 1
    1626:	90 93 89 02 	sts	0x0289, r25	; 0x800289 <local_u16OverflowCounter.1626+0x1>
    162a:	80 93 88 02 	sts	0x0288, r24	; 0x800288 <local_u16OverflowCounter.1626>
	if(local_u16OverflowCounter == TIMER0_NUMBER_OF_OVERFLOWS){
    162e:	8a 3f       	cpi	r24, 0xFA	; 250
    1630:	91 05       	cpc	r25, r1
    1632:	51 f4       	brne	.+20     	; 0x1648 <__vector_11+0x4e>
		local_u16OverflowCounter = 0;
    1634:	10 92 89 02 	sts	0x0289, r1	; 0x800289 <local_u16OverflowCounter.1626+0x1>
    1638:	10 92 88 02 	sts	0x0288, r1	; 0x800288 <local_u16OverflowCounter.1626>
		//set preload value
		TCNT0_REGISTER = TIMER0_PRELOAD_VALUE;
    163c:	12 be       	out	0x32, r1	; 50
		priv_pfCallBackFunction();
    163e:	e0 91 8a 02 	lds	r30, 0x028A	; 0x80028a <priv_pfCallBackFunction>
    1642:	f0 91 8b 02 	lds	r31, 0x028B	; 0x80028b <priv_pfCallBackFunction+0x1>
    1646:	09 95       	icall
	}
}
    1648:	ff 91       	pop	r31
    164a:	ef 91       	pop	r30
    164c:	bf 91       	pop	r27
    164e:	af 91       	pop	r26
    1650:	9f 91       	pop	r25
    1652:	8f 91       	pop	r24
    1654:	7f 91       	pop	r23
    1656:	6f 91       	pop	r22
    1658:	5f 91       	pop	r21
    165a:	4f 91       	pop	r20
    165c:	3f 91       	pop	r19
    165e:	2f 91       	pop	r18
    1660:	0f 90       	pop	r0
    1662:	0f be       	out	0x3f, r0	; 63
    1664:	0f 90       	pop	r0
    1666:	1f 90       	pop	r1
    1668:	18 95       	reti

0000166a <__vector_10>:

void __vector_10 (void) __attribute__ ((signal));
void __vector_10 (void){
    166a:	1f 92       	push	r1
    166c:	0f 92       	push	r0
    166e:	0f b6       	in	r0, 0x3f	; 63
    1670:	0f 92       	push	r0
    1672:	11 24       	eor	r1, r1
    1674:	2f 93       	push	r18
    1676:	3f 93       	push	r19
    1678:	4f 93       	push	r20
    167a:	5f 93       	push	r21
    167c:	6f 93       	push	r22
    167e:	7f 93       	push	r23
    1680:	8f 93       	push	r24
    1682:	9f 93       	push	r25
    1684:	af 93       	push	r26
    1686:	bf 93       	push	r27
    1688:	ef 93       	push	r30
    168a:	ff 93       	push	r31
	static u16 local_u16OverFlowsCounter = 0;
	++local_u16OverFlowsCounter;
    168c:	80 91 86 02 	lds	r24, 0x0286	; 0x800286 <__data_end>
    1690:	90 91 87 02 	lds	r25, 0x0287	; 0x800287 <__data_end+0x1>
    1694:	01 96       	adiw	r24, 0x01	; 1
    1696:	90 93 87 02 	sts	0x0287, r25	; 0x800287 <__data_end+0x1>
    169a:	80 93 86 02 	sts	0x0286, r24	; 0x800286 <__data_end>
	if(local_u16OverFlowsCounter == TIMER0_NUMBER_OF_OVERFLOWS){
    169e:	8a 3f       	cpi	r24, 0xFA	; 250
    16a0:	91 05       	cpc	r25, r1
    16a2:	49 f4       	brne	.+18     	; 0x16b6 <__vector_10+0x4c>
		local_u16OverFlowsCounter = 0;
    16a4:	10 92 87 02 	sts	0x0287, r1	; 0x800287 <__data_end+0x1>
    16a8:	10 92 86 02 	sts	0x0286, r1	; 0x800286 <__data_end>
		priv_pfCallBackFunction();
    16ac:	e0 91 8a 02 	lds	r30, 0x028A	; 0x80028a <priv_pfCallBackFunction>
    16b0:	f0 91 8b 02 	lds	r31, 0x028B	; 0x80028b <priv_pfCallBackFunction+0x1>
    16b4:	09 95       	icall
	}
    16b6:	ff 91       	pop	r31
    16b8:	ef 91       	pop	r30
    16ba:	bf 91       	pop	r27
    16bc:	af 91       	pop	r26
    16be:	9f 91       	pop	r25
    16c0:	8f 91       	pop	r24
    16c2:	7f 91       	pop	r23
    16c4:	6f 91       	pop	r22
    16c6:	5f 91       	pop	r21
    16c8:	4f 91       	pop	r20
    16ca:	3f 91       	pop	r19
    16cc:	2f 91       	pop	r18
    16ce:	0f 90       	pop	r0
    16d0:	0f be       	out	0x3f, r0	; 63
    16d2:	0f 90       	pop	r0
    16d4:	1f 90       	pop	r1
    16d6:	18 95       	reti

000016d8 <UART_voidInit>:


void UART_voidInit(void)
{
	//set baud rate value to 9600
	UBRRL_REG = UBRR_VALUE;
    16d8:	87 e6       	ldi	r24, 0x67	; 103
    16da:	89 b9       	out	0x09, r24	; 9
	//disable double speed mode
	CLEAR_BIT(UCSRA_REG, U2X_BIT);
    16dc:	8b b1       	in	r24, 0x0b	; 11
    16de:	8d 7f       	andi	r24, 0xFD	; 253
    16e0:	8b b9       	out	0x0b, r24	; 11
	
	// Disable UART interrupts
	CLEAR_BIT(UCSRB_REG, RXCIE_BIT);
    16e2:	8a b1       	in	r24, 0x0a	; 10
    16e4:	8f 77       	andi	r24, 0x7F	; 127
    16e6:	8a b9       	out	0x0a, r24	; 10
	CLEAR_BIT(UCSRB_REG, TXCIE_BIT);
    16e8:	8a b1       	in	r24, 0x0a	; 10
    16ea:	8f 7b       	andi	r24, 0xBF	; 191
    16ec:	8a b9       	out	0x0a, r24	; 10
	CLEAR_BIT(UCSRB_REG, UDRIE_BIT);
    16ee:	8a b1       	in	r24, 0x0a	; 10
    16f0:	8f 7d       	andi	r24, 0xDF	; 223
    16f2:	8a b9       	out	0x0a, r24	; 10
	
	//configuring UART to standard configurations(8n1 9600)
	UCSRC_REG = 0x86; //0b10000110;
    16f4:	86 e8       	ldi	r24, 0x86	; 134
    16f6:	80 bd       	out	0x20, r24	; 32
	CLEAR_BIT(UCSRB_REG, UCSZ2_BIT);
    16f8:	8a b1       	in	r24, 0x0a	; 10
    16fa:	8b 7f       	andi	r24, 0xFB	; 251
    16fc:	8a b9       	out	0x0a, r24	; 10
	
	// Enable UART Rx
	SET_BIT(UCSRB_REG, RXEN_BIT);
    16fe:	8a b1       	in	r24, 0x0a	; 10
    1700:	80 61       	ori	r24, 0x10	; 16
    1702:	8a b9       	out	0x0a, r24	; 10
	
	// Enable UART Tx
	SET_BIT(UCSRB_REG, TXEN_BIT);
    1704:	8a b1       	in	r24, 0x0a	; 10
    1706:	88 60       	ori	r24, 0x08	; 8
    1708:	8a b9       	out	0x0a, r24	; 10
    170a:	08 95       	ret

0000170c <UART_voidTxChar>:
}
void UART_voidTxChar(u8 copy_u8TxData){
	//busy wait for UDE empty flag
	while(GET_BIT(UCSRA_REG,UDRE_BIT) == 0);
    170c:	5d 9b       	sbis	0x0b, 5	; 11
    170e:	fe cf       	rjmp	.-4      	; 0x170c <UART_voidTxChar>
	//putting data in UDR
	UDR_REG = copy_u8TxData;
    1710:	8c b9       	out	0x0c, r24	; 12
    1712:	08 95       	ret

00001714 <UART_voidRxChar>:
}
void UART_voidRxChar(u8* copy_pu8RxData){
	while(GET_BIT(UCSRA_REG,RXC_BIT) == 0);
    1714:	5f 9b       	sbis	0x0b, 7	; 11
    1716:	fe cf       	rjmp	.-4      	; 0x1714 <UART_voidRxChar>
	*copy_pu8RxData = UDR_REG;
    1718:	2c b1       	in	r18, 0x0c	; 12
    171a:	fc 01       	movw	r30, r24
    171c:	20 83       	st	Z, r18
    171e:	08 95       	ret

00001720 <UART_voidTxString>:
}
void UART_voidTxString(const char* copy_pu8String){
    1720:	0f 93       	push	r16
    1722:	1f 93       	push	r17
    1724:	cf 93       	push	r28
    1726:	8c 01       	movw	r16, r24
	u8 local_u8Counter = 0;
	u8 local_u8currentChar = copy_pu8String[0];
    1728:	fc 01       	movw	r30, r24
    172a:	80 81       	ld	r24, Z
void UART_voidRxChar(u8* copy_pu8RxData){
	while(GET_BIT(UCSRA_REG,RXC_BIT) == 0);
	*copy_pu8RxData = UDR_REG;
}
void UART_voidTxString(const char* copy_pu8String){
	u8 local_u8Counter = 0;
    172c:	c0 e0       	ldi	r28, 0x00	; 0
	u8 local_u8currentChar = copy_pu8String[0];
	while(local_u8currentChar != '\0'){
    172e:	07 c0       	rjmp	.+14     	; 0x173e <UART_voidTxString+0x1e>
		UART_voidTxChar(local_u8currentChar);
    1730:	0e 94 86 0b 	call	0x170c	; 0x170c <UART_voidTxChar>
		++local_u8Counter;
    1734:	cf 5f       	subi	r28, 0xFF	; 255
		local_u8currentChar = copy_pu8String[local_u8Counter];
    1736:	f8 01       	movw	r30, r16
    1738:	ec 0f       	add	r30, r28
    173a:	f1 1d       	adc	r31, r1
    173c:	80 81       	ld	r24, Z
	*copy_pu8RxData = UDR_REG;
}
void UART_voidTxString(const char* copy_pu8String){
	u8 local_u8Counter = 0;
	u8 local_u8currentChar = copy_pu8String[0];
	while(local_u8currentChar != '\0'){
    173e:	81 11       	cpse	r24, r1
    1740:	f7 cf       	rjmp	.-18     	; 0x1730 <UART_voidTxString+0x10>
		UART_voidTxChar(local_u8currentChar);
		++local_u8Counter;
		local_u8currentChar = copy_pu8String[local_u8Counter];
	}
}
    1742:	cf 91       	pop	r28
    1744:	1f 91       	pop	r17
    1746:	0f 91       	pop	r16
    1748:	08 95       	ret

0000174a <__subsf3>:
    174a:	50 58       	subi	r21, 0x80	; 128

0000174c <__addsf3>:
    174c:	bb 27       	eor	r27, r27
    174e:	aa 27       	eor	r26, r26
    1750:	0e 94 bd 0b 	call	0x177a	; 0x177a <__addsf3x>
    1754:	0c 94 07 0d 	jmp	0x1a0e	; 0x1a0e <__fp_round>
    1758:	0e 94 f9 0c 	call	0x19f2	; 0x19f2 <__fp_pscA>
    175c:	38 f0       	brcs	.+14     	; 0x176c <__addsf3+0x20>
    175e:	0e 94 00 0d 	call	0x1a00	; 0x1a00 <__fp_pscB>
    1762:	20 f0       	brcs	.+8      	; 0x176c <__addsf3+0x20>
    1764:	39 f4       	brne	.+14     	; 0x1774 <__addsf3+0x28>
    1766:	9f 3f       	cpi	r25, 0xFF	; 255
    1768:	19 f4       	brne	.+6      	; 0x1770 <__addsf3+0x24>
    176a:	26 f4       	brtc	.+8      	; 0x1774 <__addsf3+0x28>
    176c:	0c 94 f6 0c 	jmp	0x19ec	; 0x19ec <__fp_nan>
    1770:	0e f4       	brtc	.+2      	; 0x1774 <__addsf3+0x28>
    1772:	e0 95       	com	r30
    1774:	e7 fb       	bst	r30, 7
    1776:	0c 94 f0 0c 	jmp	0x19e0	; 0x19e0 <__fp_inf>

0000177a <__addsf3x>:
    177a:	e9 2f       	mov	r30, r25
    177c:	0e 94 18 0d 	call	0x1a30	; 0x1a30 <__fp_split3>
    1780:	58 f3       	brcs	.-42     	; 0x1758 <__addsf3+0xc>
    1782:	ba 17       	cp	r27, r26
    1784:	62 07       	cpc	r22, r18
    1786:	73 07       	cpc	r23, r19
    1788:	84 07       	cpc	r24, r20
    178a:	95 07       	cpc	r25, r21
    178c:	20 f0       	brcs	.+8      	; 0x1796 <__addsf3x+0x1c>
    178e:	79 f4       	brne	.+30     	; 0x17ae <__addsf3x+0x34>
    1790:	a6 f5       	brtc	.+104    	; 0x17fa <__addsf3x+0x80>
    1792:	0c 94 3a 0d 	jmp	0x1a74	; 0x1a74 <__fp_zero>
    1796:	0e f4       	brtc	.+2      	; 0x179a <__addsf3x+0x20>
    1798:	e0 95       	com	r30
    179a:	0b 2e       	mov	r0, r27
    179c:	ba 2f       	mov	r27, r26
    179e:	a0 2d       	mov	r26, r0
    17a0:	0b 01       	movw	r0, r22
    17a2:	b9 01       	movw	r22, r18
    17a4:	90 01       	movw	r18, r0
    17a6:	0c 01       	movw	r0, r24
    17a8:	ca 01       	movw	r24, r20
    17aa:	a0 01       	movw	r20, r0
    17ac:	11 24       	eor	r1, r1
    17ae:	ff 27       	eor	r31, r31
    17b0:	59 1b       	sub	r21, r25
    17b2:	99 f0       	breq	.+38     	; 0x17da <__addsf3x+0x60>
    17b4:	59 3f       	cpi	r21, 0xF9	; 249
    17b6:	50 f4       	brcc	.+20     	; 0x17cc <__addsf3x+0x52>
    17b8:	50 3e       	cpi	r21, 0xE0	; 224
    17ba:	68 f1       	brcs	.+90     	; 0x1816 <__addsf3x+0x9c>
    17bc:	1a 16       	cp	r1, r26
    17be:	f0 40       	sbci	r31, 0x00	; 0
    17c0:	a2 2f       	mov	r26, r18
    17c2:	23 2f       	mov	r18, r19
    17c4:	34 2f       	mov	r19, r20
    17c6:	44 27       	eor	r20, r20
    17c8:	58 5f       	subi	r21, 0xF8	; 248
    17ca:	f3 cf       	rjmp	.-26     	; 0x17b2 <__addsf3x+0x38>
    17cc:	46 95       	lsr	r20
    17ce:	37 95       	ror	r19
    17d0:	27 95       	ror	r18
    17d2:	a7 95       	ror	r26
    17d4:	f0 40       	sbci	r31, 0x00	; 0
    17d6:	53 95       	inc	r21
    17d8:	c9 f7       	brne	.-14     	; 0x17cc <__addsf3x+0x52>
    17da:	7e f4       	brtc	.+30     	; 0x17fa <__addsf3x+0x80>
    17dc:	1f 16       	cp	r1, r31
    17de:	ba 0b       	sbc	r27, r26
    17e0:	62 0b       	sbc	r22, r18
    17e2:	73 0b       	sbc	r23, r19
    17e4:	84 0b       	sbc	r24, r20
    17e6:	ba f0       	brmi	.+46     	; 0x1816 <__addsf3x+0x9c>
    17e8:	91 50       	subi	r25, 0x01	; 1
    17ea:	a1 f0       	breq	.+40     	; 0x1814 <__addsf3x+0x9a>
    17ec:	ff 0f       	add	r31, r31
    17ee:	bb 1f       	adc	r27, r27
    17f0:	66 1f       	adc	r22, r22
    17f2:	77 1f       	adc	r23, r23
    17f4:	88 1f       	adc	r24, r24
    17f6:	c2 f7       	brpl	.-16     	; 0x17e8 <__addsf3x+0x6e>
    17f8:	0e c0       	rjmp	.+28     	; 0x1816 <__addsf3x+0x9c>
    17fa:	ba 0f       	add	r27, r26
    17fc:	62 1f       	adc	r22, r18
    17fe:	73 1f       	adc	r23, r19
    1800:	84 1f       	adc	r24, r20
    1802:	48 f4       	brcc	.+18     	; 0x1816 <__addsf3x+0x9c>
    1804:	87 95       	ror	r24
    1806:	77 95       	ror	r23
    1808:	67 95       	ror	r22
    180a:	b7 95       	ror	r27
    180c:	f7 95       	ror	r31
    180e:	9e 3f       	cpi	r25, 0xFE	; 254
    1810:	08 f0       	brcs	.+2      	; 0x1814 <__addsf3x+0x9a>
    1812:	b0 cf       	rjmp	.-160    	; 0x1774 <__addsf3+0x28>
    1814:	93 95       	inc	r25
    1816:	88 0f       	add	r24, r24
    1818:	08 f0       	brcs	.+2      	; 0x181c <__addsf3x+0xa2>
    181a:	99 27       	eor	r25, r25
    181c:	ee 0f       	add	r30, r30
    181e:	97 95       	ror	r25
    1820:	87 95       	ror	r24
    1822:	08 95       	ret

00001824 <__divsf3>:
    1824:	0e 94 26 0c 	call	0x184c	; 0x184c <__divsf3x>
    1828:	0c 94 07 0d 	jmp	0x1a0e	; 0x1a0e <__fp_round>
    182c:	0e 94 00 0d 	call	0x1a00	; 0x1a00 <__fp_pscB>
    1830:	58 f0       	brcs	.+22     	; 0x1848 <__divsf3+0x24>
    1832:	0e 94 f9 0c 	call	0x19f2	; 0x19f2 <__fp_pscA>
    1836:	40 f0       	brcs	.+16     	; 0x1848 <__divsf3+0x24>
    1838:	29 f4       	brne	.+10     	; 0x1844 <__divsf3+0x20>
    183a:	5f 3f       	cpi	r21, 0xFF	; 255
    183c:	29 f0       	breq	.+10     	; 0x1848 <__divsf3+0x24>
    183e:	0c 94 f0 0c 	jmp	0x19e0	; 0x19e0 <__fp_inf>
    1842:	51 11       	cpse	r21, r1
    1844:	0c 94 3b 0d 	jmp	0x1a76	; 0x1a76 <__fp_szero>
    1848:	0c 94 f6 0c 	jmp	0x19ec	; 0x19ec <__fp_nan>

0000184c <__divsf3x>:
    184c:	0e 94 18 0d 	call	0x1a30	; 0x1a30 <__fp_split3>
    1850:	68 f3       	brcs	.-38     	; 0x182c <__divsf3+0x8>

00001852 <__divsf3_pse>:
    1852:	99 23       	and	r25, r25
    1854:	b1 f3       	breq	.-20     	; 0x1842 <__divsf3+0x1e>
    1856:	55 23       	and	r21, r21
    1858:	91 f3       	breq	.-28     	; 0x183e <__divsf3+0x1a>
    185a:	95 1b       	sub	r25, r21
    185c:	55 0b       	sbc	r21, r21
    185e:	bb 27       	eor	r27, r27
    1860:	aa 27       	eor	r26, r26
    1862:	62 17       	cp	r22, r18
    1864:	73 07       	cpc	r23, r19
    1866:	84 07       	cpc	r24, r20
    1868:	38 f0       	brcs	.+14     	; 0x1878 <__divsf3_pse+0x26>
    186a:	9f 5f       	subi	r25, 0xFF	; 255
    186c:	5f 4f       	sbci	r21, 0xFF	; 255
    186e:	22 0f       	add	r18, r18
    1870:	33 1f       	adc	r19, r19
    1872:	44 1f       	adc	r20, r20
    1874:	aa 1f       	adc	r26, r26
    1876:	a9 f3       	breq	.-22     	; 0x1862 <__divsf3_pse+0x10>
    1878:	35 d0       	rcall	.+106    	; 0x18e4 <__divsf3_pse+0x92>
    187a:	0e 2e       	mov	r0, r30
    187c:	3a f0       	brmi	.+14     	; 0x188c <__divsf3_pse+0x3a>
    187e:	e0 e8       	ldi	r30, 0x80	; 128
    1880:	32 d0       	rcall	.+100    	; 0x18e6 <__divsf3_pse+0x94>
    1882:	91 50       	subi	r25, 0x01	; 1
    1884:	50 40       	sbci	r21, 0x00	; 0
    1886:	e6 95       	lsr	r30
    1888:	00 1c       	adc	r0, r0
    188a:	ca f7       	brpl	.-14     	; 0x187e <__divsf3_pse+0x2c>
    188c:	2b d0       	rcall	.+86     	; 0x18e4 <__divsf3_pse+0x92>
    188e:	fe 2f       	mov	r31, r30
    1890:	29 d0       	rcall	.+82     	; 0x18e4 <__divsf3_pse+0x92>
    1892:	66 0f       	add	r22, r22
    1894:	77 1f       	adc	r23, r23
    1896:	88 1f       	adc	r24, r24
    1898:	bb 1f       	adc	r27, r27
    189a:	26 17       	cp	r18, r22
    189c:	37 07       	cpc	r19, r23
    189e:	48 07       	cpc	r20, r24
    18a0:	ab 07       	cpc	r26, r27
    18a2:	b0 e8       	ldi	r27, 0x80	; 128
    18a4:	09 f0       	breq	.+2      	; 0x18a8 <__divsf3_pse+0x56>
    18a6:	bb 0b       	sbc	r27, r27
    18a8:	80 2d       	mov	r24, r0
    18aa:	bf 01       	movw	r22, r30
    18ac:	ff 27       	eor	r31, r31
    18ae:	93 58       	subi	r25, 0x83	; 131
    18b0:	5f 4f       	sbci	r21, 0xFF	; 255
    18b2:	3a f0       	brmi	.+14     	; 0x18c2 <__divsf3_pse+0x70>
    18b4:	9e 3f       	cpi	r25, 0xFE	; 254
    18b6:	51 05       	cpc	r21, r1
    18b8:	78 f0       	brcs	.+30     	; 0x18d8 <__divsf3_pse+0x86>
    18ba:	0c 94 f0 0c 	jmp	0x19e0	; 0x19e0 <__fp_inf>
    18be:	0c 94 3b 0d 	jmp	0x1a76	; 0x1a76 <__fp_szero>
    18c2:	5f 3f       	cpi	r21, 0xFF	; 255
    18c4:	e4 f3       	brlt	.-8      	; 0x18be <__divsf3_pse+0x6c>
    18c6:	98 3e       	cpi	r25, 0xE8	; 232
    18c8:	d4 f3       	brlt	.-12     	; 0x18be <__divsf3_pse+0x6c>
    18ca:	86 95       	lsr	r24
    18cc:	77 95       	ror	r23
    18ce:	67 95       	ror	r22
    18d0:	b7 95       	ror	r27
    18d2:	f7 95       	ror	r31
    18d4:	9f 5f       	subi	r25, 0xFF	; 255
    18d6:	c9 f7       	brne	.-14     	; 0x18ca <__divsf3_pse+0x78>
    18d8:	88 0f       	add	r24, r24
    18da:	91 1d       	adc	r25, r1
    18dc:	96 95       	lsr	r25
    18de:	87 95       	ror	r24
    18e0:	97 f9       	bld	r25, 7
    18e2:	08 95       	ret
    18e4:	e1 e0       	ldi	r30, 0x01	; 1
    18e6:	66 0f       	add	r22, r22
    18e8:	77 1f       	adc	r23, r23
    18ea:	88 1f       	adc	r24, r24
    18ec:	bb 1f       	adc	r27, r27
    18ee:	62 17       	cp	r22, r18
    18f0:	73 07       	cpc	r23, r19
    18f2:	84 07       	cpc	r24, r20
    18f4:	ba 07       	cpc	r27, r26
    18f6:	20 f0       	brcs	.+8      	; 0x1900 <__divsf3_pse+0xae>
    18f8:	62 1b       	sub	r22, r18
    18fa:	73 0b       	sbc	r23, r19
    18fc:	84 0b       	sbc	r24, r20
    18fe:	ba 0b       	sbc	r27, r26
    1900:	ee 1f       	adc	r30, r30
    1902:	88 f7       	brcc	.-30     	; 0x18e6 <__divsf3_pse+0x94>
    1904:	e0 95       	com	r30
    1906:	08 95       	ret

00001908 <__fixunssfsi>:
    1908:	0e 94 20 0d 	call	0x1a40	; 0x1a40 <__fp_splitA>
    190c:	88 f0       	brcs	.+34     	; 0x1930 <__fixunssfsi+0x28>
    190e:	9f 57       	subi	r25, 0x7F	; 127
    1910:	98 f0       	brcs	.+38     	; 0x1938 <__fixunssfsi+0x30>
    1912:	b9 2f       	mov	r27, r25
    1914:	99 27       	eor	r25, r25
    1916:	b7 51       	subi	r27, 0x17	; 23
    1918:	b0 f0       	brcs	.+44     	; 0x1946 <__fixunssfsi+0x3e>
    191a:	e1 f0       	breq	.+56     	; 0x1954 <__fixunssfsi+0x4c>
    191c:	66 0f       	add	r22, r22
    191e:	77 1f       	adc	r23, r23
    1920:	88 1f       	adc	r24, r24
    1922:	99 1f       	adc	r25, r25
    1924:	1a f0       	brmi	.+6      	; 0x192c <__fixunssfsi+0x24>
    1926:	ba 95       	dec	r27
    1928:	c9 f7       	brne	.-14     	; 0x191c <__fixunssfsi+0x14>
    192a:	14 c0       	rjmp	.+40     	; 0x1954 <__fixunssfsi+0x4c>
    192c:	b1 30       	cpi	r27, 0x01	; 1
    192e:	91 f0       	breq	.+36     	; 0x1954 <__fixunssfsi+0x4c>
    1930:	0e 94 3a 0d 	call	0x1a74	; 0x1a74 <__fp_zero>
    1934:	b1 e0       	ldi	r27, 0x01	; 1
    1936:	08 95       	ret
    1938:	0c 94 3a 0d 	jmp	0x1a74	; 0x1a74 <__fp_zero>
    193c:	67 2f       	mov	r22, r23
    193e:	78 2f       	mov	r23, r24
    1940:	88 27       	eor	r24, r24
    1942:	b8 5f       	subi	r27, 0xF8	; 248
    1944:	39 f0       	breq	.+14     	; 0x1954 <__fixunssfsi+0x4c>
    1946:	b9 3f       	cpi	r27, 0xF9	; 249
    1948:	cc f3       	brlt	.-14     	; 0x193c <__fixunssfsi+0x34>
    194a:	86 95       	lsr	r24
    194c:	77 95       	ror	r23
    194e:	67 95       	ror	r22
    1950:	b3 95       	inc	r27
    1952:	d9 f7       	brne	.-10     	; 0x194a <__fixunssfsi+0x42>
    1954:	3e f4       	brtc	.+14     	; 0x1964 <__fixunssfsi+0x5c>
    1956:	90 95       	com	r25
    1958:	80 95       	com	r24
    195a:	70 95       	com	r23
    195c:	61 95       	neg	r22
    195e:	7f 4f       	sbci	r23, 0xFF	; 255
    1960:	8f 4f       	sbci	r24, 0xFF	; 255
    1962:	9f 4f       	sbci	r25, 0xFF	; 255
    1964:	08 95       	ret

00001966 <__floatunsisf>:
    1966:	e8 94       	clt
    1968:	09 c0       	rjmp	.+18     	; 0x197c <__floatsisf+0x12>

0000196a <__floatsisf>:
    196a:	97 fb       	bst	r25, 7
    196c:	3e f4       	brtc	.+14     	; 0x197c <__floatsisf+0x12>
    196e:	90 95       	com	r25
    1970:	80 95       	com	r24
    1972:	70 95       	com	r23
    1974:	61 95       	neg	r22
    1976:	7f 4f       	sbci	r23, 0xFF	; 255
    1978:	8f 4f       	sbci	r24, 0xFF	; 255
    197a:	9f 4f       	sbci	r25, 0xFF	; 255
    197c:	99 23       	and	r25, r25
    197e:	a9 f0       	breq	.+42     	; 0x19aa <__floatsisf+0x40>
    1980:	f9 2f       	mov	r31, r25
    1982:	96 e9       	ldi	r25, 0x96	; 150
    1984:	bb 27       	eor	r27, r27
    1986:	93 95       	inc	r25
    1988:	f6 95       	lsr	r31
    198a:	87 95       	ror	r24
    198c:	77 95       	ror	r23
    198e:	67 95       	ror	r22
    1990:	b7 95       	ror	r27
    1992:	f1 11       	cpse	r31, r1
    1994:	f8 cf       	rjmp	.-16     	; 0x1986 <__floatsisf+0x1c>
    1996:	fa f4       	brpl	.+62     	; 0x19d6 <__floatsisf+0x6c>
    1998:	bb 0f       	add	r27, r27
    199a:	11 f4       	brne	.+4      	; 0x19a0 <__floatsisf+0x36>
    199c:	60 ff       	sbrs	r22, 0
    199e:	1b c0       	rjmp	.+54     	; 0x19d6 <__floatsisf+0x6c>
    19a0:	6f 5f       	subi	r22, 0xFF	; 255
    19a2:	7f 4f       	sbci	r23, 0xFF	; 255
    19a4:	8f 4f       	sbci	r24, 0xFF	; 255
    19a6:	9f 4f       	sbci	r25, 0xFF	; 255
    19a8:	16 c0       	rjmp	.+44     	; 0x19d6 <__floatsisf+0x6c>
    19aa:	88 23       	and	r24, r24
    19ac:	11 f0       	breq	.+4      	; 0x19b2 <__floatsisf+0x48>
    19ae:	96 e9       	ldi	r25, 0x96	; 150
    19b0:	11 c0       	rjmp	.+34     	; 0x19d4 <__floatsisf+0x6a>
    19b2:	77 23       	and	r23, r23
    19b4:	21 f0       	breq	.+8      	; 0x19be <__floatsisf+0x54>
    19b6:	9e e8       	ldi	r25, 0x8E	; 142
    19b8:	87 2f       	mov	r24, r23
    19ba:	76 2f       	mov	r23, r22
    19bc:	05 c0       	rjmp	.+10     	; 0x19c8 <__floatsisf+0x5e>
    19be:	66 23       	and	r22, r22
    19c0:	71 f0       	breq	.+28     	; 0x19de <__floatsisf+0x74>
    19c2:	96 e8       	ldi	r25, 0x86	; 134
    19c4:	86 2f       	mov	r24, r22
    19c6:	70 e0       	ldi	r23, 0x00	; 0
    19c8:	60 e0       	ldi	r22, 0x00	; 0
    19ca:	2a f0       	brmi	.+10     	; 0x19d6 <__floatsisf+0x6c>
    19cc:	9a 95       	dec	r25
    19ce:	66 0f       	add	r22, r22
    19d0:	77 1f       	adc	r23, r23
    19d2:	88 1f       	adc	r24, r24
    19d4:	da f7       	brpl	.-10     	; 0x19cc <__floatsisf+0x62>
    19d6:	88 0f       	add	r24, r24
    19d8:	96 95       	lsr	r25
    19da:	87 95       	ror	r24
    19dc:	97 f9       	bld	r25, 7
    19de:	08 95       	ret

000019e0 <__fp_inf>:
    19e0:	97 f9       	bld	r25, 7
    19e2:	9f 67       	ori	r25, 0x7F	; 127
    19e4:	80 e8       	ldi	r24, 0x80	; 128
    19e6:	70 e0       	ldi	r23, 0x00	; 0
    19e8:	60 e0       	ldi	r22, 0x00	; 0
    19ea:	08 95       	ret

000019ec <__fp_nan>:
    19ec:	9f ef       	ldi	r25, 0xFF	; 255
    19ee:	80 ec       	ldi	r24, 0xC0	; 192
    19f0:	08 95       	ret

000019f2 <__fp_pscA>:
    19f2:	00 24       	eor	r0, r0
    19f4:	0a 94       	dec	r0
    19f6:	16 16       	cp	r1, r22
    19f8:	17 06       	cpc	r1, r23
    19fa:	18 06       	cpc	r1, r24
    19fc:	09 06       	cpc	r0, r25
    19fe:	08 95       	ret

00001a00 <__fp_pscB>:
    1a00:	00 24       	eor	r0, r0
    1a02:	0a 94       	dec	r0
    1a04:	12 16       	cp	r1, r18
    1a06:	13 06       	cpc	r1, r19
    1a08:	14 06       	cpc	r1, r20
    1a0a:	05 06       	cpc	r0, r21
    1a0c:	08 95       	ret

00001a0e <__fp_round>:
    1a0e:	09 2e       	mov	r0, r25
    1a10:	03 94       	inc	r0
    1a12:	00 0c       	add	r0, r0
    1a14:	11 f4       	brne	.+4      	; 0x1a1a <__fp_round+0xc>
    1a16:	88 23       	and	r24, r24
    1a18:	52 f0       	brmi	.+20     	; 0x1a2e <__fp_round+0x20>
    1a1a:	bb 0f       	add	r27, r27
    1a1c:	40 f4       	brcc	.+16     	; 0x1a2e <__fp_round+0x20>
    1a1e:	bf 2b       	or	r27, r31
    1a20:	11 f4       	brne	.+4      	; 0x1a26 <__fp_round+0x18>
    1a22:	60 ff       	sbrs	r22, 0
    1a24:	04 c0       	rjmp	.+8      	; 0x1a2e <__fp_round+0x20>
    1a26:	6f 5f       	subi	r22, 0xFF	; 255
    1a28:	7f 4f       	sbci	r23, 0xFF	; 255
    1a2a:	8f 4f       	sbci	r24, 0xFF	; 255
    1a2c:	9f 4f       	sbci	r25, 0xFF	; 255
    1a2e:	08 95       	ret

00001a30 <__fp_split3>:
    1a30:	57 fd       	sbrc	r21, 7
    1a32:	90 58       	subi	r25, 0x80	; 128
    1a34:	44 0f       	add	r20, r20
    1a36:	55 1f       	adc	r21, r21
    1a38:	59 f0       	breq	.+22     	; 0x1a50 <__fp_splitA+0x10>
    1a3a:	5f 3f       	cpi	r21, 0xFF	; 255
    1a3c:	71 f0       	breq	.+28     	; 0x1a5a <__fp_splitA+0x1a>
    1a3e:	47 95       	ror	r20

00001a40 <__fp_splitA>:
    1a40:	88 0f       	add	r24, r24
    1a42:	97 fb       	bst	r25, 7
    1a44:	99 1f       	adc	r25, r25
    1a46:	61 f0       	breq	.+24     	; 0x1a60 <__fp_splitA+0x20>
    1a48:	9f 3f       	cpi	r25, 0xFF	; 255
    1a4a:	79 f0       	breq	.+30     	; 0x1a6a <__fp_splitA+0x2a>
    1a4c:	87 95       	ror	r24
    1a4e:	08 95       	ret
    1a50:	12 16       	cp	r1, r18
    1a52:	13 06       	cpc	r1, r19
    1a54:	14 06       	cpc	r1, r20
    1a56:	55 1f       	adc	r21, r21
    1a58:	f2 cf       	rjmp	.-28     	; 0x1a3e <__fp_split3+0xe>
    1a5a:	46 95       	lsr	r20
    1a5c:	f1 df       	rcall	.-30     	; 0x1a40 <__fp_splitA>
    1a5e:	08 c0       	rjmp	.+16     	; 0x1a70 <__fp_splitA+0x30>
    1a60:	16 16       	cp	r1, r22
    1a62:	17 06       	cpc	r1, r23
    1a64:	18 06       	cpc	r1, r24
    1a66:	99 1f       	adc	r25, r25
    1a68:	f1 cf       	rjmp	.-30     	; 0x1a4c <__fp_splitA+0xc>
    1a6a:	86 95       	lsr	r24
    1a6c:	71 05       	cpc	r23, r1
    1a6e:	61 05       	cpc	r22, r1
    1a70:	08 94       	sec
    1a72:	08 95       	ret

00001a74 <__fp_zero>:
    1a74:	e8 94       	clt

00001a76 <__fp_szero>:
    1a76:	bb 27       	eor	r27, r27
    1a78:	66 27       	eor	r22, r22
    1a7a:	77 27       	eor	r23, r23
    1a7c:	cb 01       	movw	r24, r22
    1a7e:	97 f9       	bld	r25, 7
    1a80:	08 95       	ret

00001a82 <__mulsf3>:
    1a82:	0e 94 54 0d 	call	0x1aa8	; 0x1aa8 <__mulsf3x>
    1a86:	0c 94 07 0d 	jmp	0x1a0e	; 0x1a0e <__fp_round>
    1a8a:	0e 94 f9 0c 	call	0x19f2	; 0x19f2 <__fp_pscA>
    1a8e:	38 f0       	brcs	.+14     	; 0x1a9e <__mulsf3+0x1c>
    1a90:	0e 94 00 0d 	call	0x1a00	; 0x1a00 <__fp_pscB>
    1a94:	20 f0       	brcs	.+8      	; 0x1a9e <__mulsf3+0x1c>
    1a96:	95 23       	and	r25, r21
    1a98:	11 f0       	breq	.+4      	; 0x1a9e <__mulsf3+0x1c>
    1a9a:	0c 94 f0 0c 	jmp	0x19e0	; 0x19e0 <__fp_inf>
    1a9e:	0c 94 f6 0c 	jmp	0x19ec	; 0x19ec <__fp_nan>
    1aa2:	11 24       	eor	r1, r1
    1aa4:	0c 94 3b 0d 	jmp	0x1a76	; 0x1a76 <__fp_szero>

00001aa8 <__mulsf3x>:
    1aa8:	0e 94 18 0d 	call	0x1a30	; 0x1a30 <__fp_split3>
    1aac:	70 f3       	brcs	.-36     	; 0x1a8a <__mulsf3+0x8>

00001aae <__mulsf3_pse>:
    1aae:	95 9f       	mul	r25, r21
    1ab0:	c1 f3       	breq	.-16     	; 0x1aa2 <__mulsf3+0x20>
    1ab2:	95 0f       	add	r25, r21
    1ab4:	50 e0       	ldi	r21, 0x00	; 0
    1ab6:	55 1f       	adc	r21, r21
    1ab8:	62 9f       	mul	r22, r18
    1aba:	f0 01       	movw	r30, r0
    1abc:	72 9f       	mul	r23, r18
    1abe:	bb 27       	eor	r27, r27
    1ac0:	f0 0d       	add	r31, r0
    1ac2:	b1 1d       	adc	r27, r1
    1ac4:	63 9f       	mul	r22, r19
    1ac6:	aa 27       	eor	r26, r26
    1ac8:	f0 0d       	add	r31, r0
    1aca:	b1 1d       	adc	r27, r1
    1acc:	aa 1f       	adc	r26, r26
    1ace:	64 9f       	mul	r22, r20
    1ad0:	66 27       	eor	r22, r22
    1ad2:	b0 0d       	add	r27, r0
    1ad4:	a1 1d       	adc	r26, r1
    1ad6:	66 1f       	adc	r22, r22
    1ad8:	82 9f       	mul	r24, r18
    1ada:	22 27       	eor	r18, r18
    1adc:	b0 0d       	add	r27, r0
    1ade:	a1 1d       	adc	r26, r1
    1ae0:	62 1f       	adc	r22, r18
    1ae2:	73 9f       	mul	r23, r19
    1ae4:	b0 0d       	add	r27, r0
    1ae6:	a1 1d       	adc	r26, r1
    1ae8:	62 1f       	adc	r22, r18
    1aea:	83 9f       	mul	r24, r19
    1aec:	a0 0d       	add	r26, r0
    1aee:	61 1d       	adc	r22, r1
    1af0:	22 1f       	adc	r18, r18
    1af2:	74 9f       	mul	r23, r20
    1af4:	33 27       	eor	r19, r19
    1af6:	a0 0d       	add	r26, r0
    1af8:	61 1d       	adc	r22, r1
    1afa:	23 1f       	adc	r18, r19
    1afc:	84 9f       	mul	r24, r20
    1afe:	60 0d       	add	r22, r0
    1b00:	21 1d       	adc	r18, r1
    1b02:	82 2f       	mov	r24, r18
    1b04:	76 2f       	mov	r23, r22
    1b06:	6a 2f       	mov	r22, r26
    1b08:	11 24       	eor	r1, r1
    1b0a:	9f 57       	subi	r25, 0x7F	; 127
    1b0c:	50 40       	sbci	r21, 0x00	; 0
    1b0e:	9a f0       	brmi	.+38     	; 0x1b36 <__mulsf3_pse+0x88>
    1b10:	f1 f0       	breq	.+60     	; 0x1b4e <__mulsf3_pse+0xa0>
    1b12:	88 23       	and	r24, r24
    1b14:	4a f0       	brmi	.+18     	; 0x1b28 <__mulsf3_pse+0x7a>
    1b16:	ee 0f       	add	r30, r30
    1b18:	ff 1f       	adc	r31, r31
    1b1a:	bb 1f       	adc	r27, r27
    1b1c:	66 1f       	adc	r22, r22
    1b1e:	77 1f       	adc	r23, r23
    1b20:	88 1f       	adc	r24, r24
    1b22:	91 50       	subi	r25, 0x01	; 1
    1b24:	50 40       	sbci	r21, 0x00	; 0
    1b26:	a9 f7       	brne	.-22     	; 0x1b12 <__mulsf3_pse+0x64>
    1b28:	9e 3f       	cpi	r25, 0xFE	; 254
    1b2a:	51 05       	cpc	r21, r1
    1b2c:	80 f0       	brcs	.+32     	; 0x1b4e <__mulsf3_pse+0xa0>
    1b2e:	0c 94 f0 0c 	jmp	0x19e0	; 0x19e0 <__fp_inf>
    1b32:	0c 94 3b 0d 	jmp	0x1a76	; 0x1a76 <__fp_szero>
    1b36:	5f 3f       	cpi	r21, 0xFF	; 255
    1b38:	e4 f3       	brlt	.-8      	; 0x1b32 <__mulsf3_pse+0x84>
    1b3a:	98 3e       	cpi	r25, 0xE8	; 232
    1b3c:	d4 f3       	brlt	.-12     	; 0x1b32 <__mulsf3_pse+0x84>
    1b3e:	86 95       	lsr	r24
    1b40:	77 95       	ror	r23
    1b42:	67 95       	ror	r22
    1b44:	b7 95       	ror	r27
    1b46:	f7 95       	ror	r31
    1b48:	e7 95       	ror	r30
    1b4a:	9f 5f       	subi	r25, 0xFF	; 255
    1b4c:	c1 f7       	brne	.-16     	; 0x1b3e <__mulsf3_pse+0x90>
    1b4e:	fe 2b       	or	r31, r30
    1b50:	88 0f       	add	r24, r24
    1b52:	91 1d       	adc	r25, r1
    1b54:	96 95       	lsr	r25
    1b56:	87 95       	ror	r24
    1b58:	97 f9       	bld	r25, 7
    1b5a:	08 95       	ret

00001b5c <__divmodhi4>:
    1b5c:	97 fb       	bst	r25, 7
    1b5e:	07 2e       	mov	r0, r23
    1b60:	16 f4       	brtc	.+4      	; 0x1b66 <__divmodhi4+0xa>
    1b62:	00 94       	com	r0
    1b64:	07 d0       	rcall	.+14     	; 0x1b74 <__divmodhi4_neg1>
    1b66:	77 fd       	sbrc	r23, 7
    1b68:	09 d0       	rcall	.+18     	; 0x1b7c <__divmodhi4_neg2>
    1b6a:	0e 94 f9 0d 	call	0x1bf2	; 0x1bf2 <__udivmodhi4>
    1b6e:	07 fc       	sbrc	r0, 7
    1b70:	05 d0       	rcall	.+10     	; 0x1b7c <__divmodhi4_neg2>
    1b72:	3e f4       	brtc	.+14     	; 0x1b82 <__divmodhi4_exit>

00001b74 <__divmodhi4_neg1>:
    1b74:	90 95       	com	r25
    1b76:	81 95       	neg	r24
    1b78:	9f 4f       	sbci	r25, 0xFF	; 255
    1b7a:	08 95       	ret

00001b7c <__divmodhi4_neg2>:
    1b7c:	70 95       	com	r23
    1b7e:	61 95       	neg	r22
    1b80:	7f 4f       	sbci	r23, 0xFF	; 255

00001b82 <__divmodhi4_exit>:
    1b82:	08 95       	ret

00001b84 <__udivmodsi4>:
    1b84:	a1 e2       	ldi	r26, 0x21	; 33
    1b86:	1a 2e       	mov	r1, r26
    1b88:	aa 1b       	sub	r26, r26
    1b8a:	bb 1b       	sub	r27, r27
    1b8c:	fd 01       	movw	r30, r26
    1b8e:	0d c0       	rjmp	.+26     	; 0x1baa <__udivmodsi4_ep>

00001b90 <__udivmodsi4_loop>:
    1b90:	aa 1f       	adc	r26, r26
    1b92:	bb 1f       	adc	r27, r27
    1b94:	ee 1f       	adc	r30, r30
    1b96:	ff 1f       	adc	r31, r31
    1b98:	a2 17       	cp	r26, r18
    1b9a:	b3 07       	cpc	r27, r19
    1b9c:	e4 07       	cpc	r30, r20
    1b9e:	f5 07       	cpc	r31, r21
    1ba0:	20 f0       	brcs	.+8      	; 0x1baa <__udivmodsi4_ep>
    1ba2:	a2 1b       	sub	r26, r18
    1ba4:	b3 0b       	sbc	r27, r19
    1ba6:	e4 0b       	sbc	r30, r20
    1ba8:	f5 0b       	sbc	r31, r21

00001baa <__udivmodsi4_ep>:
    1baa:	66 1f       	adc	r22, r22
    1bac:	77 1f       	adc	r23, r23
    1bae:	88 1f       	adc	r24, r24
    1bb0:	99 1f       	adc	r25, r25
    1bb2:	1a 94       	dec	r1
    1bb4:	69 f7       	brne	.-38     	; 0x1b90 <__udivmodsi4_loop>
    1bb6:	60 95       	com	r22
    1bb8:	70 95       	com	r23
    1bba:	80 95       	com	r24
    1bbc:	90 95       	com	r25
    1bbe:	9b 01       	movw	r18, r22
    1bc0:	ac 01       	movw	r20, r24
    1bc2:	bd 01       	movw	r22, r26
    1bc4:	cf 01       	movw	r24, r30
    1bc6:	08 95       	ret

00001bc8 <__tablejump2__>:
    1bc8:	ee 0f       	add	r30, r30
    1bca:	ff 1f       	adc	r31, r31
    1bcc:	05 90       	lpm	r0, Z+
    1bce:	f4 91       	lpm	r31, Z
    1bd0:	e0 2d       	mov	r30, r0
    1bd2:	09 94       	ijmp

00001bd4 <__umulhisi3>:
    1bd4:	a2 9f       	mul	r26, r18
    1bd6:	b0 01       	movw	r22, r0
    1bd8:	b3 9f       	mul	r27, r19
    1bda:	c0 01       	movw	r24, r0
    1bdc:	a3 9f       	mul	r26, r19
    1bde:	70 0d       	add	r23, r0
    1be0:	81 1d       	adc	r24, r1
    1be2:	11 24       	eor	r1, r1
    1be4:	91 1d       	adc	r25, r1
    1be6:	b2 9f       	mul	r27, r18
    1be8:	70 0d       	add	r23, r0
    1bea:	81 1d       	adc	r24, r1
    1bec:	11 24       	eor	r1, r1
    1bee:	91 1d       	adc	r25, r1
    1bf0:	08 95       	ret

00001bf2 <__udivmodhi4>:
    1bf2:	aa 1b       	sub	r26, r26
    1bf4:	bb 1b       	sub	r27, r27
    1bf6:	51 e1       	ldi	r21, 0x11	; 17
    1bf8:	07 c0       	rjmp	.+14     	; 0x1c08 <__udivmodhi4_ep>

00001bfa <__udivmodhi4_loop>:
    1bfa:	aa 1f       	adc	r26, r26
    1bfc:	bb 1f       	adc	r27, r27
    1bfe:	a6 17       	cp	r26, r22
    1c00:	b7 07       	cpc	r27, r23
    1c02:	10 f0       	brcs	.+4      	; 0x1c08 <__udivmodhi4_ep>
    1c04:	a6 1b       	sub	r26, r22
    1c06:	b7 0b       	sbc	r27, r23

00001c08 <__udivmodhi4_ep>:
    1c08:	88 1f       	adc	r24, r24
    1c0a:	99 1f       	adc	r25, r25
    1c0c:	5a 95       	dec	r21
    1c0e:	a9 f7       	brne	.-22     	; 0x1bfa <__udivmodhi4_loop>
    1c10:	80 95       	com	r24
    1c12:	90 95       	com	r25
    1c14:	bc 01       	movw	r22, r24
    1c16:	cd 01       	movw	r24, r26
    1c18:	08 95       	ret

00001c1a <_exit>:
    1c1a:	f8 94       	cli

00001c1c <__stop_program>:
    1c1c:	ff cf       	rjmp	.-2      	; 0x1c1c <__stop_program>
